Source: unflutter_dump/asm.txt
Address rule: in this libapp.so, vaddr == file offset for the code regions discussed below.

[重点1-A] 聚合判定候选函数 0x00592fd8

## 分支点 A
0x0059a1a0  23 02 00 f9  STR X3, [X17]
0x0059a1a4  c4 06 80 d2  MOV X4, #0x36
0x0059a1a8  60 00 00 36  TBZ W0, #0, .+0xc
0x0059a1ac  1f 20 03 d5  NOP 
0x0059a1b0  04 10 40 78  LDURH W4, [X0,#1]
0x0059a1b4  84 54 01 d1  SUB X4, X4, #0x55
0x0059a1b8  9f 0c 00 f1  CMP X4, #0x3
0x0059a1bc  c9 00 00 54  B LS, .+0x18
0x0059a1c0  1f 20 03 d5  NOP 
0x0059a1c4  68 87 59 f9  LDR X8, [X27,#13064]
0x0059a1c8  63 53 40 91  ADD X3, X27, #0x14, LSL #12
0x0059a1cc  63 0c 47 f9  LDR X3, [X3,#3608]
0x0059a1d0  dc db 27 94  BL .+0x9f6f70
0x0059a1d4  f1 73 82 92  MOV X17, #0xffffffffffffec60
0x0059a1d8  b1 03 11 8b  ADD X17, X29, X17
0x0059a1dc  20 02 40 f9  LDR X0, [X17]
0x0059a1e0  1f 00 16 6b  CMP W0, W22
0x0059a1e4  40 81 07 54  B EQ, .+0xf028
0x0059a1e8  1f 20 03 d5  NOP 
0x0059a1ec  f1 74 82 92  MOV X17, #0xffffffffffffec58
0x0059a1f0  b1 03 11 8b  ADD X17, X29, X17
0x0059a1f4  30 02 40 f9  LDR X16, [X17]
0x0059a1f8  f0 01 bf a9  STP X16, X0, [X15,#-16]!
0x0059a1fc  f2 aa 0d 94  BL .+0x36abc8
0x0059a200  ef 41 00 91  ADD X15, X15, #0x10
0x0059a204  e1 03 00 aa  MOV X1, X0
0x0059a208  f1 6f 82 92  MOV X17, #0xffffffffffffec80
0x0059a20c  b1 03 11 8b  ADD X17, X29, X17
0x0059a210  20 02 40 f9  LDR X0, [X17]
0x0059a214  02 30 42 b8  LDUR W2, [X0,#35]
0x0059a218  42 80 1c 8b  ADD X2, X2, X28, LSL #32
0x0059a21c  03 70 42 b8  LDUR W3, [X0,#39]
0x0059a220  63 80 1c 8b  ADD X3, X3, X28, LSL #32
0x0059a224  04 f0 45 b8  LDUR W4, [X0,#95]
0x0059a228  84 80 1c 8b  ADD X4, X4, X28, LSL #32
0x0059a22c  e2 05 bf a9  STP X2, X1, [X15,#-16]!
0x0059a230  e4 0d bf a9  STP X4, X3, [X15,#-16]!
0x0059a234  1a 65 fb 97  BL .+0xffffffffffed9468

## 分支点 B / getApplication
0x0059a264  70 53 40 91  ADD X16, X27, #0x14, LSL #12
0x0059a268  10 16 47 f9  LDR X16, [X16,#3624]
0x0059a26c  f1 72 82 92  MOV X17, #0xffffffffffffec68
0x0059a270  b1 03 11 8b  ADD X17, X29, X17
0x0059a274  3e 02 40 f9  LDR X30, [X17]
0x0059a278  fe 41 bf a9  STP X30, X16, [X15,#-16]!
0x0059a27c  4c a4 1b 94  BL .+0x6e9130
0x0059a280  ef 41 00 91  ADD X15, X15, #0x10
0x0059a284  80 05 20 37  TBNZ W0, #4, .+0xb0
0x0059a288  1f 20 03 d5  NOP 
0x0059a28c  f1 6f 82 92  MOV X17, #0xffffffffffffec80
0x0059a290  b1 03 11 8b  ADD X17, X29, X17
0x0059a294  21 02 40 f9  LDR X1, [X17]
0x0059a298  51 0c 80 d2  MOV X17, #0x62
0x0059a29c  31 f0 00 b8  STUR W17, [X1,#15]
0x0059a2a0  f1 70 82 92  MOV X17, #0xffffffffffffec78
0x0059a2a4  b1 03 11 8b  ADD X17, X29, X17
0x0059a2a8  20 02 40 f9  LDR X0, [X17]
0x0059a2ac  20 b0 02 b8  STUR W0, [X1,#43]
0x0059a2b0  30 f0 5f 38  LDURB W16, [X1,#-1]
0x0059a2b4  11 f0 5f 38  LDURB W17, [X0,#-1]
0x0059a2b8  30 0a 50 8a  AND X16, X17, X16, LSR #2
0x0059a2bc  1f 82 5c ea  TST X16, X28, LSR #32
0x0059a2c0  60 00 00 54  B EQ, .+0xc
0x0059a2c4  1f 20 03 d5  NOP 
0x0059a2c8  20 a2 27 94  BL .+0x9e8880
0x0059a2cc  40 43 40 f9  LDR X0, [X26,#128]
0x0059a2d0  00 c8 47 f9  LDR X0, [X0,#3984]
0x0059a2d4  1f 00 16 6b  CMP W0, W22
0x0059a2d8  c0 79 07 54  B EQ, .+0xef38
0x0059a2dc  1f 20 03 d5  NOP 
0x0059a2e0  e0 8d 1f f8  STR X0, [X15,#-8]!
0x0059a2e4  d6 a9 0d 94  BL .+0x36a758
0x0059a2e8  ef 21 00 91  ADD X15, X15, #0x8
0x0059a2ec  e1 03 00 aa  MOV X1, X0
0x0059a2f0  f1 6f 82 92  MOV X17, #0xffffffffffffec80
0x0059a2f4  b1 03 11 8b  ADD X17, X29, X17
0x0059a2f8  20 02 40 f9  LDR X0, [X17]
0x0059a2fc  02 30 42 b8  LDUR W2, [X0,#35]
0x0059a300  42 80 1c 8b  ADD X2, X2, X28, LSL #32
0x0059a304  03 70 42 b8  LDUR W3, [X0,#39]
0x0059a308  63 80 1c 8b  ADD X3, X3, X28, LSL #32
0x0059a30c  04 f0 45 b8  LDUR W4, [X0,#95]
0x0059a310  84 80 1c 8b  ADD X4, X4, X28, LSL #32
0x0059a314  e2 05 bf a9  STP X2, X1, [X15,#-16]!
0x0059a318  e4 0d bf a9  STP X4, X3, [X15,#-16]!
0x0059a31c  e0 64 fb 97  BL .+0xffffffffffed9380

## 分支点 C
0x0059a340  70 3b 40 91  ADD X16, X27, #0xe, LSL #12
0x0059a344  10 66 46 f9  LDR X16, [X16,#3272]
0x0059a348  f1 72 82 92  MOV X17, #0xffffffffffffec68
0x0059a34c  b1 03 11 8b  ADD X17, X29, X17
0x0059a350  3e 02 40 f9  LDR X30, [X17]
0x0059a354  fe 41 bf a9  STP X30, X16, [X15,#-16]!
0x0059a358  15 a4 1b 94  BL .+0x6e9054
0x0059a35c  ef 41 00 91  ADD X15, X15, #0x10
0x0059a360  a0 05 20 37  TBNZ W0, #4, .+0xb4
0x0059a364  1f 20 03 d5  NOP 
0x0059a368  f1 70 82 92  MOV X17, #0xffffffffffffec78
0x0059a36c  b1 03 11 8b  ADD X17, X29, X17
0x0059a370  20 02 40 f9  LDR X0, [X17]
0x0059a374  f1 6f 82 92  MOV X17, #0xffffffffffffec80
0x0059a378  b1 03 11 8b  ADD X17, X29, X17
0x0059a37c  21 02 40 f9  LDR X1, [X17]
0x0059a380  d1 c2 00 91  ADD X17, X22, #0x30
0x0059a384  11 30 02 b8  STUR W17, [X0,#35]
0x0059a388  91 0c 80 d2  MOV X17, #0x64
0x0059a38c  31 f0 00 b8  STUR W17, [X1,#15]
0x0059a390  20 b0 02 b8  STUR W0, [X1,#43]
0x0059a394  30 f0 5f 38  LDURB W16, [X1,#-1]
0x0059a398  11 f0 5f 38  LDURB W17, [X0,#-1]
0x0059a39c  30 0a 50 8a  AND X16, X17, X16, LSR #2
0x0059a3a0  1f 82 5c ea  TST X16, X28, LSR #32
0x0059a3a4  60 00 00 54  B EQ, .+0xc
0x0059a3a8  1f 20 03 d5  NOP 
0x0059a3ac  e7 a1 27 94  BL .+0x9e879c
0x0059a3b0  40 43 40 f9  LDR X0, [X26,#128]
0x0059a3b4  00 c8 47 f9  LDR X0, [X0,#3984]
0x0059a3b8  1f 00 16 6b  CMP W0, W22
0x0059a3bc  c0 72 07 54  B EQ, .+0xee58
0x0059a3c0  1f 20 03 d5  NOP 
0x0059a3c4  e0 8d 1f f8  STR X0, [X15,#-8]!
0x0059a3c8  bd a8 0d 94  BL .+0x36a2f4
0x0059a3cc  ef 21 00 91  ADD X15, X15, #0x8
0x0059a3d0  f1 6f 82 92  MOV X17, #0xffffffffffffec80
0x0059a3d4  b1 03 11 8b  ADD X17, X29, X17
0x0059a3d8  21 02 40 f9  LDR X1, [X17]
0x0059a3dc  22 30 42 b8  LDUR W2, [X1,#35]
0x0059a3e0  42 80 1c 8b  ADD X2, X2, X28, LSL #32
0x0059a3e4  23 70 42 b8  LDUR W3, [X1,#39]
0x0059a3e8  63 80 1c 8b  ADD X3, X3, X28, LSL #32
0x0059a3ec  24 f0 45 b8  LDUR W4, [X1,#95]
0x0059a3f0  84 80 1c 8b  ADD X4, X4, X28, LSL #32
0x0059a3f4  e2 01 bf a9  STP X2, X0, [X15,#-16]!
0x0059a3f8  e4 0d bf a9  STP X4, X3, [X15,#-16]!
0x0059a3fc  a8 64 fb 97  BL .+0xffffffffffed92a0

## getPMProxy 命中
0x0059a700  68 2b 41 f9  LDR X8, [X27,#592]
0x0059a704  63 53 40 91  ADD X3, X27, #0x14, LSL #12
0x0059a708  63 34 47 f9  LDR X3, [X3,#3688]
0x0059a70c  bc d9 27 94  BL .+0x9f66f0
0x0059a710  f1 72 82 92  MOV X17, #0xffffffffffffec68
0x0059a714  b1 03 11 8b  ADD X17, X29, X17
0x0059a718  30 02 40 f9  LDR X16, [X17]
0x0059a71c  f0 8d 1f f8  STR X16, [X15,#-8]!
0x0059a720  64 37 40 f9  LDR X4, [X27,#104]
0x0059a724  5f a5 0d 94  BL .+0x36957c
0x0059a728  ef 21 00 91  ADD X15, X15, #0x8
0x0059a72c  e1 03 00 aa  MOV X1, X0
0x0059a730  f1 6f 82 92  MOV X17, #0xffffffffffffec80
0x0059a734  b1 03 11 8b  ADD X17, X29, X17
0x0059a738  20 02 40 f9  LDR X0, [X17]
0x0059a73c  02 30 42 b8  LDUR W2, [X0,#35]
0x0059a740  42 80 1c 8b  ADD X2, X2, X28, LSL #32
0x0059a744  03 70 42 b8  LDUR W3, [X0,#39]
0x0059a748  63 80 1c 8b  ADD X3, X3, X28, LSL #32
0x0059a74c  04 f0 45 b8  LDUR W4, [X0,#95]
0x0059a750  84 80 1c 8b  ADD X4, X4, X28, LSL #32
0x0059a754  e2 05 bf a9  STP X2, X1, [X15,#-16]!
0x0059a758  e4 0d bf a9  STP X4, X3, [X15,#-16]!
0x0059a75c  d0 63 fb 97  BL .+0xffffffffffed8f40

## getApplication 命中
0x0059a848  20 02 40 f9  LDR X0, [X17]
0x0059a84c  70 53 40 91  ADD X16, X27, #0x14, LSL #12
0x0059a850  10 42 47 f9  LDR X16, [X16,#3712]
0x0059a854  f1 71 82 92  MOV X17, #0xffffffffffffec70
0x0059a858  b1 03 11 8b  ADD X17, X29, X17
0x0059a85c  3e 02 40 f9  LDR X30, [X17]
0x0059a860  fe 41 bf a9  STP X30, X16, [X15,#-16]!
0x0059a864  d2 a2 1b 94  BL .+0x6e8b48
0x0059a868  ef 41 00 91  ADD X15, X15, #0x10
0x0059a86c  a0 04 20 37  TBNZ W0, #4, .+0x94
0x0059a870  1f 20 03 d5  NOP 
0x0059a874  f1 6f 82 92  MOV X17, #0xffffffffffffec80
0x0059a878  b1 03 11 8b  ADD X17, X29, X17
0x0059a87c  21 02 40 f9  LDR X1, [X17]
0x0059a880  51 0d 80 d2  MOV X17, #0x6a
0x0059a884  31 f0 00 b8  STUR W17, [X1,#15]
0x0059a888  f1 70 82 92  MOV X17, #0xffffffffffffec78
0x0059a88c  b1 03 11 8b  ADD X17, X29, X17
0x0059a890  20 02 40 f9  LDR X0, [X17]
0x0059a894  20 b0 02 b8  STUR W0, [X1,#43]
0x0059a898  30 f0 5f 38  LDURB W16, [X1,#-1]
0x0059a89c  11 f0 5f 38  LDURB W17, [X0,#-1]
0x0059a8a0  30 0a 50 8a  AND X16, X17, X16, LSR #2
0x0059a8a4  1f 82 5c ea  TST X16, X28, LSR #32
0x0059a8a8  60 00 00 54  B EQ, .+0xc
0x0059a8ac  1f 20 03 d5  NOP 
0x0059a8b0  a6 a0 27 94  BL .+0x9e8298
0x0059a8b4  41 a3 0d 94  BL .+0x368d04
0x0059a8b8  e1 03 00 aa  MOV X1, X0
0x0059a8bc  f1 6f 82 92  MOV X17, #0xffffffffffffec80
0x0059a8c0  b1 03 11 8b  ADD X17, X29, X17
0x0059a8c4  20 02 40 f9  LDR X0, [X17]
0x0059a8c8  02 30 42 b8  LDUR W2, [X0,#35]
0x0059a8cc  42 80 1c 8b  ADD X2, X2, X28, LSL #32
0x0059a8d0  03 70 42 b8  LDUR W3, [X0,#39]
0x0059a8d4  63 80 1c 8b  ADD X3, X3, X28, LSL #32
0x0059a8d8  04 f0 45 b8  LDUR W4, [X0,#95]
0x0059a8dc  84 80 1c 8b  ADD X4, X4, X28, LSL #32
0x0059a8e0  e2 05 bf a9  STP X2, X1, [X15,#-16]!
0x0059a8e4  e4 0d bf a9  STP X4, X3, [X15,#-16]!
0x0059a8e8  6d 63 fb 97  BL .+0xffffffffffed8db4

## getMapsList 命中
0x0059ca94  70 57 40 91  ADD X16, X27, #0x15, LSL #12
0x0059ca98  10 b6 40 f9  LDR X16, [X16,#360]
0x0059ca9c  f0 01 bf a9  STP X16, X0, [X15,#-16]!
0x0059caa0  e0 03 01 aa  MOV X0, X1
0x0059caa4  1e 04 40 d1  SUB X30, X0, #0x1, LSL #12
0x0059caa8  be 7a 7e f8  LDR X30, [X21,X30,LSL #3]
0x0059caac  c0 03 3f d6  BLR X30
0x0059cab0  ef 41 00 91  ADD X15, X15, #0x10
0x0059cab4  e3 03 00 aa  MOV X3, X0
0x0059cab8  e2 03 16 aa  MOV X2, X22
0x0059cabc  e1 03 16 aa  MOV X1, X22
0x0059cac0  f1 72 82 92  MOV X17, #0xffffffffffffec68
0x0059cac4  b1 03 11 8b  ADD X17, X29, X17
0x0059cac8  23 02 00 f9  STR X3, [X17]
0x0059cacc  c4 06 80 d2  MOV X4, #0x36
0x0059cad0  60 00 00 36  TBZ W0, #0, .+0xc
0x0059cad4  1f 20 03 d5  NOP 
0x0059cad8  04 10 40 78  LDURH W4, [X0,#1]
0x0059cadc  84 54 01 d1  SUB X4, X4, #0x55
0x0059cae0  9f 0c 00 f1  CMP X4, #0x3
0x0059cae4  c9 00 00 54  B LS, .+0x18
0x0059cae8  1f 20 03 d5  NOP 
0x0059caec  68 87 59 f9  LDR X8, [X27,#13064]
0x0059caf0  63 57 40 91  ADD X3, X27, #0x15, LSL #12
0x0059caf4  63 b8 40 f9  LDR X3, [X3,#368]
0x0059caf8  92 d1 27 94  BL .+0x9f4648
0x0059cafc  f1 72 82 92  MOV X17, #0xffffffffffffec68
0x0059cb00  b1 03 11 8b  ADD X17, X29, X17
0x0059cb04  30 02 40 f9  LDR X16, [X17]
0x0059cb08  f0 8d 1f f8  STR X16, [X15,#-8]!
0x0059cb0c  9b 12 0d 94  BL .+0x344a6c
0x0059cb10  ef 21 00 91  ADD X15, X15, #0x8
0x0059cb14  e1 03 00 aa  MOV X1, X0
0x0059cb18  f1 6f 82 92  MOV X17, #0xffffffffffffec80
0x0059cb1c  b1 03 11 8b  ADD X17, X29, X17
0x0059cb20  20 02 40 f9  LDR X0, [X17]
0x0059cb24  02 30 42 b8  LDUR W2, [X0,#35]
0x0059cb28  42 80 1c 8b  ADD X2, X2, X28, LSL #32
0x0059cb2c  03 70 42 b8  LDUR W3, [X0,#39]
0x0059cb30  63 80 1c 8b  ADD X3, X3, X28, LSL #32
0x0059cb34  04 f0 45 b8  LDUR W4, [X0,#95]
0x0059cb38  84 80 1c 8b  ADD X4, X4, X28, LSL #32
0x0059cb3c  e2 05 bf a9  STP X2, X1, [X15,#-16]!
0x0059cb40  e4 0d bf a9  STP X4, X3, [X15,#-16]!
0x0059cb44  d6 5a fb 97  BL .+0xffffffffffed6b58

## getAppInfo 命中
0x0059e1bc  c4 06 80 d2  MOV X4, #0x36
0x0059e1c0  60 00 00 36  TBZ W0, #0, .+0xc
0x0059e1c4  1f 20 03 d5  NOP 
0x0059e1c8  04 10 40 78  LDURH W4, [X0,#1]
0x0059e1cc  84 e4 00 f1  SUBS X4, X4, #0x39
0x0059e1d0  c0 00 00 54  B EQ, .+0x18
0x0059e1d4  1f 20 03 d5  NOP 
0x0059e1d8  68 2b 41 f9  LDR X8, [X27,#592]
0x0059e1dc  63 57 40 91  ADD X3, X27, #0x15, LSL #12
0x0059e1e0  63 88 41 f9  LDR X3, [X3,#784]
0x0059e1e4  06 cb 27 94  BL .+0x9f2c18
0x0059e1e8  f1 72 82 92  MOV X17, #0xffffffffffffec68
0x0059e1ec  b1 03 11 8b  ADD X17, X29, X17
0x0059e1f0  30 02 40 f9  LDR X16, [X17]
0x0059e1f4  f0 8d 1f f8  STR X16, [X15,#-8]!
0x0059e1f8  64 37 40 f9  LDR X4, [X27,#104]
0x0059e1fc  d8 ba 0c 94  BL .+0x32eb60
0x0059e200  ef 21 00 91  ADD X15, X15, #0x8
0x0059e204  e1 03 00 aa  MOV X1, X0
0x0059e208  f1 6f 82 92  MOV X17, #0xffffffffffffec80
0x0059e20c  b1 03 11 8b  ADD X17, X29, X17
0x0059e210  20 02 40 f9  LDR X0, [X17]
0x0059e214  02 30 42 b8  LDUR W2, [X0,#35]
0x0059e218  42 80 1c 8b  ADD X2, X2, X28, LSL #32
0x0059e21c  03 70 42 b8  LDUR W3, [X0,#39]
0x0059e220  63 80 1c 8b  ADD X3, X3, X28, LSL #32
0x0059e224  04 f0 45 b8  LDUR W4, [X0,#95]
0x0059e228  84 80 1c 8b  ADD X4, X4, X28, LSL #32
0x0059e22c  e2 05 bf a9  STP X2, X1, [X15,#-16]!
0x0059e230  e4 0d bf a9  STP X4, X3, [X15,#-16]!
0x0059e234  1a 55 fb 97  BL .+0xffffffffffed5468

[重点1-B] 公共失败 thunk
0x005a920c  88 6d 27 94  BL .+0x9db620
0x005a9210  87 6d 27 94  BL .+0x9db61c
0x005a9214  86 6d 27 94  BL .+0x9db618
0x005a9258  fd 79 bf a9  STP X29, X30, [X15,#-16]!
0x005a92d8  a0 45 00 54  B EQ, .+0x8b4

[重点1-C] tamper 弹框构造层 0x0051d764 / 0x0051dfa8

## helper 的两个直接调用点
0x0051dad4  e2 8d 1f f8  STR X2, [X15,#-8]!
0x0051dad8  e0 8d 1f fc  STR D0, [X15,#-8]!
0x0051dadc  e3 8d 1f f8  STR X3, [X15,#-8]!
0x0051dae0  32 01 00 94  BL .+0x4c8
0x0051dae4  ef 61 00 91  ADD X15, X15, #0x18

0x0051dd24  e3 8d 1f f8  STR X3, [X15,#-8]!
0x0051dd28  e1 8d 1f fc  STR D1, [X15,#-8]!
0x0051dd2c  e0 8d 1f f8  STR X0, [X15,#-8]!
0x0051dd30  9e 00 00 94  BL .+0x278
0x0051dd34  ef 61 00 91  ADD X15, X15, #0x18

## helper 入口
0x0051dfa8  fd 79 bf a9  STP X29, X30, [X15,#-16]!
0x0051dfac  fd 03 0f aa  MOV X29, X15
0x0051dfb0  ef a1 00 d1  SUB X15, X15, #0x28
0x0051dfb4  50 1f 40 f9  LDR X16, [X26,#56]
0x0051dfb8  ff 01 10 eb  CMP X15, X16
0x0051dfbc  a9 18 00 54  B LS, .+0x314
0x0051dfc0  70 6b 56 f9  LDR X16, [X27,#11472]
0x0051dfc4  7e 5b 41 91  ADD X30, X27, #0x56, LSL #12
0x0051dfc8  de 93 44 f9  LDR X30, [X30,#2336]
0x0051dfcc  fe 41 bf a9  STP X30, X16, [X15,#-16]!
0x0051dfd0  20 5c 00 94  BL .+0x17080

## 第一次装载 tamper 标题 / 正文
0x0051e0f8  70 2b 40 91  ADD X16, X27, #0xa, LSL #12
0x0051e0fc  10 ca 46 f9  LDR X16, [X16,#3472]
0x0051e100  e1 41 bf a9  STP X1, X16, [X15,#-16]!
0x0051e104  26 26 fd 97  BL .+0xfffffffffff49898
0x0051e108  ef 41 00 91  ADD X15, X15, #0x10
0x0051e10c  a0 83 1f f8  STUR X0, [X29,#-8]
0x0051e110  d1 00 80 d2  MOV X17, #0x6
0x0051e114  11 b0 00 b8  STUR W17, [X0,#11]
0x0051e118  3c 23 00 94  BL .+0x8cf0
0x0051e11c  a0 03 1f f8  STUR X0, [X29,#-16]
0x0051e120  71 37 40 91  ADD X17, X27, #0xd, LSL #12
0x0051e124  31 62 43 f9  LDR X17, [X17,#1728]
0x0051e128  11 f0 00 b8  STUR W17, [X0,#15]
0x0051e12c  71 37 40 91  ADD X17, X27, #0xd, LSL #12
0x0051e130  31 ee 44 f9  LDR X17, [X17,#2520]
0x0051e134  11 30 01 b8  STUR W17, [X0,#19]
0x0051e138  71 37 40 91  ADD X17, X27, #0xd, LSL #12
0x0051e13c  31 1a 43 f9  LDR X17, [X17,#1584]
0x0051e140  11 70 01 b8  STUR W17, [X0,#23]
0x0051e144  71 37 40 91  ADD X17, X27, #0xd, LSL #12
0x0051e148  31 02 45 f9  LDR X17, [X17,#2560]
0x0051e14c  11 b0 01 b8  STUR W17, [X0,#27]
0x0051e150  71 37 40 91  ADD X17, X27, #0xd, LSL #12
0x0051e154  31 06 45 f9  LDR X17, [X17,#2568]
0x0051e158  11 30 02 b8  STUR W17, [X0,#35]
0x0051e15c  71 2b 40 91  ADD X17, X27, #0xa, LSL #12
0x0051e160  31 c6 46 f9  LDR X17, [X17,#3464]
0x0051e164  11 b0 02 b8  STUR W17, [X0,#43]

## 第二次装载 tamper 标题 / 正文
0x0051e210  70 2b 40 91  ADD X16, X27, #0xa, LSL #12
0x0051e214  10 ca 46 f9  LDR X16, [X16,#3472]
0x0051e218  e1 41 bf a9  STP X1, X16, [X15,#-16]!
0x0051e21c  e0 25 fd 97  BL .+0xfffffffffff49780
0x0051e220  ef 41 00 91  ADD X15, X15, #0x10
0x0051e224  a0 83 1f f8  STUR X0, [X29,#-8]
0x0051e228  91 00 80 d2  MOV X17, #0x4
0x0051e22c  11 b0 00 b8  STUR W17, [X0,#11]
0x0051e230  37 00 00 94  BL .+0xdc
0x0051e234  71 2f 40 91  ADD X17, X27, #0xb, LSL #12
0x0051e238  31 a6 42 f9  LDR X17, [X17,#1352]
0x0051e23c  11 f0 00 b8  STUR W17, [X0,#15]
0x0051e240  71 37 40 91  ADD X17, X27, #0xd, LSL #12
0x0051e244  31 ee 44 f9  LDR X17, [X17,#2520]
0x0051e248  11 30 01 b8  STUR W17, [X0,#19]
0x0051e24c  71 37 40 91  ADD X17, X27, #0xd, LSL #12
0x0051e250  31 1a 43 f9  LDR X17, [X17,#1584]
0x0051e254  11 70 01 b8  STUR W17, [X0,#23]
0x0051e258  71 37 40 91  ADD X17, X27, #0xd, LSL #12
0x0051e25c  31 02 45 f9  LDR X17, [X17,#2560]
0x0051e260  11 b0 01 b8  STUR W17, [X0,#27]
0x0051e264  71 37 40 91  ADD X17, X27, #0xd, LSL #12
0x0051e268  31 06 45 f9  LDR X17, [X17,#2568]
0x0051e26c  11 30 02 b8  STUR W17, [X0,#35]
0x0051e270  71 2b 40 91  ADD X17, X27, #0xa, LSL #12
0x0051e274  31 c6 46 f9  LDR X17, [X17,#3464]
0x0051e278  11 b0 02 b8  STUR W17, [X0,#43]

[重点1-D] 混合检测 + tamper 构造层 0x006418a4
0x00641e58  b1 23 04 d1  SUB X17, X29, #0x108
0x00641e5c  28 02 40 f9  LDR X8, [X17]
0x00641e60  28 b0 02 b8  STUR W8, [X1,#43]
0x00641e64  70 2b 40 91  ADD X16, X27, #0xa, LSL #12
0x00641e68  10 ca 46 f9  LDR X16, [X16,#3472]
0x00641e6c  e1 41 bf a9  STP X1, X16, [X15,#-16]!
0x00641e70  cb 96 f8 97  BL .+0xffffffffffe25b2c
0x00641e74  ef 41 00 91  ADD X15, X15, #0x10
0x00641e78  a0 03 14 f8  STUR X0, [X29,#-192]
0x00641e7c  11 02 80 d2  MOV X17, #0x10
0x00641e80  11 b0 00 b8  STUR W17, [X0,#11]
0x00641e84  e1 93 fb 97  BL .+0xffffffffffee4f84
0x00641e88  a0 83 13 f8  STUR X0, [X29,#-200]
0x00641e8c  71 37 40 91  ADD X17, X27, #0xd, LSL #12
0x00641e90  31 62 43 f9  LDR X17, [X17,#1728]
0x00641e94  11 f0 00 b8  STUR W17, [X0,#15]
0x00641e98  71 37 40 91  ADD X17, X27, #0xd, LSL #12
0x00641e9c  31 ee 44 f9  LDR X17, [X17,#2520]
0x00641ea0  11 30 01 b8  STUR W17, [X0,#19]
0x00641ea4  71 37 40 91  ADD X17, X27, #0xd, LSL #12
0x00641ea8  31 fa 44 f9  LDR X17, [X17,#2544]
0x00641eac  11 70 01 b8  STUR W17, [X0,#23]
0x00641eb0  71 37 40 91  ADD X17, X27, #0xd, LSL #12
0x00641eb4  31 02 45 f9  LDR X17, [X17,#2560]
0x00641eb8  11 b0 01 b8  STUR W17, [X0,#27]
0x00641ebc  71 37 40 91  ADD X17, X27, #0xd, LSL #12
0x00641ec0  31 06 45 f9  LDR X17, [X17,#2568]
0x00641ec4  11 30 02 b8  STUR W17, [X0,#35]
0x00641ec8  71 2b 40 91  ADD X17, X27, #0xa, LSL #12
0x00641ecc  31 c6 46 f9  LDR X17, [X17,#3464]
0x00641ed0  11 b0 02 b8  STUR W17, [X0,#43]
0x00641ed4  a1 03 54 f8  LDUR X1, [X29,#-192]
0x00641ed8  01 b0 00 b8  STUR W1, [X0,#11]
0x00641edc  e1 03 16 aa  MOV X1, X22
0x00641ee0  c2 00 80 d2  MOV X2, #0x6
0x00641ee4  b1 07 25 94  BL .+0x941ec4
0x00641ee8  e1 03 00 aa  MOV X1, X0
0x00641eec  a0 03 55 f8  LDUR X0, [X29,#-176]
0x00641ef0  a1 03 14 f8  STUR X1, [X29,#-192]
0x00641ef4  20 f0 00 b8  STUR W0, [X1,#15]
0x00641ef8  a2 83 54 f8  LDUR X2, [X29,#-184]
0x00641efc  22 30 01 b8  STUR W2, [X1,#19]
0x00641f00  a3 83 53 f8  LDUR X3, [X29,#-200]
0x00641f04  23 70 01 b8  STUR W3, [X1,#23]
0x00641f08  70 2b 40 91  ADD X16, X27, #0xa, LSL #12
0x00641f0c  10 ca 46 f9  LDR X16, [X16,#3472]
0x00641f10  e1 41 bf a9  STP X1, X16, [X15,#-16]!
0x00641f14  a2 96 f8 97  BL .+0xffffffffffe25a88
0x00641f18  ef 41 00 91  ADD X15, X15, #0x10
0x00641f1c  a0 03 15 f8  STUR X0, [X29,#-176]
0x00641f20  d1 00 80 d2  MOV X17, #0x6
0x00641f24  11 b0 00 b8  STUR W17, [X0,#11]
0x00641f28  f9 70 fb 97  BL .+0xffffffffffedc3e4
0x00641f2c  71 2f 40 91  ADD X17, X27, #0xb, LSL #12
0x00641f30  31 a6 42 f9  LDR X17, [X17,#1352]
0x00641f34  11 f0 00 b8  STUR W17, [X0,#15]
0x00641f38  71 37 40 91  ADD X17, X27, #0xd, LSL #12
0x00641f3c  31 ee 44 f9  LDR X17, [X17,#2520]
0x00641f40  11 30 01 b8  STUR W17, [X0,#19]
0x00641f44  71 37 40 91  ADD X17, X27, #0xd, LSL #12
0x00641f48  31 fa 44 f9  LDR X17, [X17,#2544]
0x00641f4c  11 70 01 b8  STUR W17, [X0,#23]
0x00641f50  71 3b 40 91  ADD X17, X27, #0xe, LSL #12
0x00641f54  31 62 45 f9  LDR X17, [X17,#2752]
0x00641f58  11 b0 01 b8  STUR W17, [X0,#27]
0x00641f5c  71 37 40 91  ADD X17, X27, #0xd, LSL #12
0x00641f60  31 06 45 f9  LDR X17, [X17,#2568]
0x00641f64  11 30 02 b8  STUR W17, [X0,#35]
0x00641f68  71 2b 40 91  ADD X17, X27, #0xa, LSL #12
0x00641f6c  31 c6 46 f9  LDR X17, [X17,#3464]
0x00641f70  11 b0 02 b8  STUR W17, [X0,#43]
0x00641f74  a1 03 55 f8  LDUR X1, [X29,#-176]
0x00641f78  01 b0 00 b8  STUR W1, [X0,#11]
0x00641f7c  b0 83 55 f8  LDUR X16, [X29,#-168]
0x00641f80  e0 41 bf a9  STP X0, X16, [X15,#-16]!
0x00641f84  64 83 40 91  ADD X4, X27, #0x20, LSL #12
0x00641f88  84 34 47 f9  LDR X4, [X4,#3688]
0x00641f8c  a3 93 fb 97  BL .+0xffffffffffee4e8c
0x00641f90  ef 41 00 91  ADD X15, X15, #0x10
0x00641f94  08 3b fc 97  BL .+0xfffffffffff0ec20
0x00641f98  a0 03 15 f8  STUR X0, [X29,#-176]
0x00641f9c  71 9b 40 91  ADD X17, X27, #0x26, LSL #12
0x00641fa0  31 66 45 f9  LDR X17, [X17,#2760]
0x00641fa4  11 70 00 b8  STUR W17, [X0,#7]
0x00641fa8  71 9b 40 91  ADD X17, X27, #0x26, LSL #12
0x00641fac  31 66 45 f9  LDR X17, [X17,#2760]
0x00641fb0  11 b0 00 b8  STUR W17, [X0,#11]
0x00641fb4  71 9b 40 91  ADD X17, X27, #0x26, LSL #12
0x00641fb8  31 66 45 f9  LDR X17, [X17,#2760]
0x00641fbc  11 f0 00 b8  STUR W17, [X0,#15]
0x00641fc0  71 43 47 f9  LDR X17, [X27,#3712]
0x00641fc4  11 30 01 b8  STUR W17, [X0,#19]

0x0064209c  70 2b 40 91  ADD X16, X27, #0xa, LSL #12
0x006420a0  10 ca 46 f9  LDR X16, [X16,#3472]
0x006420a4  e1 41 bf a9  STP X1, X16, [X15,#-16]!
0x006420a8  3d 96 f8 97  BL .+0xffffffffffe258f4
0x006420ac  ef 41 00 91  ADD X15, X15, #0x10
0x006420b0  91 00 80 d2  MOV X17, #0x4
0x006420b4  11 b0 00 b8  STUR W17, [X0,#11]
0x006420b8  b0 03 56 f8  LDUR X16, [X29,#-160]
0x006420bc  e0 41 bf a9  STP X0, X16, [X15,#-16]!
0x006420c0  b0 83 55 f8  LDUR X16, [X29,#-168]
0x006420c4  be 03 55 f8  LDUR X30, [X29,#-176]
0x006420c8  fe 41 bf a9  STP X30, X16, [X15,#-16]!
0x006420cc  64 13 41 91  ADD X4, X27, #0x44, LSL #12
0x006420d0  84 f4 40 f9  LDR X4, [X4,#488]
0x006420d4  3b 00 00 94  BL .+0xec
0x006420d8  ef 81 00 91  ADD X15, X15, #0x20
0x006420dc  a2 83 56 f8  LDUR X2, [X29,#-152]
0x006420e0  61 17 41 91  ADD X1, X27, #0x45, LSL #12
0x006420e4  21 3c 45 f9  LDR X1, [X1,#2680]
0x006420e8  a0 03 16 f8  STUR X0, [X29,#-160]
0x006420ec  d6 03 25 94  BL .+0x940f58
0x006420f0  70 6f 47 f9  LDR X16, [X27,#3800]
0x006420f4  be 03 56 f8  LDUR X30, [X29,#-160]
0x006420f8  fe 41 bf a9  STP X30, X16, [X15,#-16]!
0x006420fc  e0 8d 1f f8  STR X0, [X15,#-8]!
0x00642100  64 7b 40 f9  LDR X4, [X27,#240]
0x00642104  1a 80 23 94  BL .+0x8e0068

[重点2-A] VIP / 特权文案构造 0x00a54178

## 设备绑定文案
0x00a54d38  71 b3 40 91  ADD X17, X27, #0x2c, LSL #12
0x00a54d3c  31 96 46 f9  LDR X17, [X17,#3368]
0x00a54d40  11 b0 00 b8  STUR W17, [X0,#11]
0x00a54d44  e1 03 16 aa  MOV X1, X22
0x00a54d48  82 00 80 d2  MOV X2, #0x4
0x00a54d4c  17 bc 14 94  BL .+0x52f05c
0x00a54d50  e1 03 00 aa  MOV X1, X0
0x00a54d54  a0 03 5b f8  LDUR X0, [X29,#-80]
0x00a54d58  20 f0 00 b8  STUR W0, [X1,#15]
0x00a54d5c  a0 83 5b f8  LDUR X0, [X29,#-72]
0x00a54d60  20 30 01 b8  STUR W0, [X1,#19]
0x00a54d64  70 2b 40 91  ADD X16, X27, #0xa, LSL #12
0x00a54d68  10 ca 46 f9  LDR X16, [X16,#3472]
0x00a54d6c  e1 41 bf a9  STP X1, X16, [X15,#-16]!
0x00a54d70  0b 4b e8 97  BL .+0xffffffffffa12c2c

## 账号绑定文案
0x00a55124  c7 7f eb 97  BL .+0xffffffffffadff1c
0x00a55128  a0 83 1b f8  STUR X0, [X29,#-72]
0x00a5512c  71 b3 40 91  ADD X17, X27, #0x2c, LSL #12
0x00a55130  31 ae 46 f9  LDR X17, [X17,#3416]
0x00a55134  11 b0 00 b8  STUR W17, [X0,#11]
0x00a55138  e1 03 16 aa  MOV X1, X22
0x00a5513c  82 00 80 d2  MOV X2, #0x4
0x00a55140  1a bb 14 94  BL .+0x52ec68
0x00a55144  e1 03 00 aa  MOV X1, X0
0x00a55148  a0 03 5b f8  LDUR X0, [X29,#-80]
0x00a5514c  20 f0 00 b8  STUR W0, [X1,#15]
0x00a55150  a0 83 5b f8  LDUR X0, [X29,#-72]
0x00a55154  20 30 01 b8  STUR W0, [X1,#19]
0x00a55158  70 2b 40 91  ADD X16, X27, #0xa, LSL #12
0x00a5515c  10 ca 46 f9  LDR X16, [X16,#3472]
0x00a55160  e1 41 bf a9  STP X1, X16, [X15,#-16]!
0x00a55164  0e 4a e8 97  BL .+0xffffffffffa12838

## “0点重置浏览次数” 文案
0x00a55708  e1 03 16 aa  MOV X1, X22
0x00a5570c  c2 01 80 d2  MOV X2, #0xe
0x00a55710  a6 b9 14 94  BL .+0x52e698
0x00a55714  a0 03 1b f8  STUR X0, [X29,#-80]
0x00a55718  71 b3 40 91  ADD X17, X27, #0x2c, LSL #12
0x00a5571c  31 d2 46 f9  LDR X17, [X17,#3488]
0x00a55720  11 f0 00 b8  STUR W17, [X0,#15]
0x00a55724  f7 16 f9 97  BL .+0xffffffffffe45bdc
0x00a55728  01 10 40 78  LDURH W1, [X0,#1]
0x00a5572c  70 17 61 f9  LDR X16, [X27,#16936]
0x00a55730  f0 01 bf a9  STP X16, X0, [X15,#-16]!
0x00a55734  e0 03 01 aa  MOV X0, X1
0x00a55738  1e 04 40 d1  SUB X30, X0, #0x1, LSL #12
0x00a5573c  be 7a 7e f8  LDR X30, [X21,X30,LSL #3]
0x00a55740  c0 03 3f d6  BLR X30
0x00a55744  ef 41 00 91  ADD X15, X15, #0x10
0x00a55748  a1 03 5b f8  LDUR X1, [X29,#-80]
0x00a5574c  39 4c 00 91  ADD X25, X1, #0x13
0x00a55750  20 03 00 b9  STR W0, [X25]
0x00a55754  e0 00 00 36  TBZ W0, #0, .+0x1c
0x00a55758  30 f0 5f 38  LDURB W16, [X1,#-1]
0x00a5575c  11 f0 5f 38  LDURB W17, [X0,#-1]
0x00a55760  30 0a 50 8a  AND X16, X17, X16, LSR #2
0x00a55764  1f 82 5c ea  TST X16, X28, LSR #32
0x00a55768  40 00 00 54  B EQ, .+0x8
0x00a5576c  84 b3 14 94  BL .+0x52ce10

[重点2-B] 账号 / 设备二选一分支 0x00b9fc84
0x00ba0060  50 6b 40 f9  LDR X16, [X26,#208]
0x00ba0064  3f 00 10 6b  CMP W1, W16
0x00ba0068  81 00 00 54  B NE, .+0x10
0x00ba006c  63 b3 40 91  ADD X3, X27, #0x2c, LSL #12
0x00ba0070  63 ac 46 f9  LDR X3, [X3,#3416]
0x00ba0074  03 00 00 14  B .+0xc
0x00ba0078  63 b3 40 91  ADD X3, X27, #0x2c, LSL #12
0x00ba007c  63 94 46 f9  LDR X3, [X3,#3368]
0x00ba0080  a2 83 5b f8  LDUR X2, [X29,#-72]
0x00ba0084  a3 83 1a f8  STUR X3, [X29,#-88]
0x00ba0088  ee 53 e6 97  BL .+0xffffffffff994fb8

[重点2-C] 捐赠 CTA 0x008a0fd4
0x008a10bc  e1 03 16 aa  MOV X1, X22
0x008a10c0  82 01 80 d2  MOV X2, #0xc
0x008a10c4  39 8b 1b 94  BL .+0x6e2ce4
0x008a10c8  a0 83 1f f8  STUR X0, [X29,#-8]
0x008a10cc  71 3b 40 91  ADD X17, X27, #0xe, LSL #12
0x008a10d0  31 de 43 f9  LDR X17, [X17,#1976]
0x008a10d4  11 f0 00 b8  STUR W17, [X0,#15]
0x008a10d8  40 43 40 f9  LDR X0, [X26,#128]
0x008a10dc  00 14 54 f9  LDR X0, [X0,#10280]
0x008a10e0  70 17 40 f9  LDR X16, [X27,#40]
0x008a10e4  1f 00 10 6b  CMP W0, W16
0x008a10e8  80 00 00 54  B EQ, .+0x10
0x008a10ec  70 d3 5a f9  LDR X16, [X27,#13728]
0x008a10f0  1f 00 10 6b  CMP W0, W16
0x008a10f4  81 00 00 54  B NE, .+0x10
0x008a10f8  60 3b 40 91  ADD X0, X27, #0xe, LSL #12
0x008a10fc  00 e0 43 f9  LDR X0, [X0,#1984]
0x008a1100  e5 84 1b 94  BL .+0x6e1394
0x008a1104  a1 83 5f f8  LDUR X1, [X29,#-8]
0x008a1108  39 4c 00 91  ADD X25, X1, #0x13
0x008a110c  20 03 00 b9  STR W0, [X25]
0x008a1110  e0 00 00 36  TBZ W0, #0, .+0x1c
0x008a1114  30 f0 5f 38  LDURB W16, [X1,#-1]
0x008a1118  11 f0 5f 38  LDURB W17, [X0,#-1]
0x008a111c  30 0a 50 8a  AND X16, X17, X16, LSR #2
0x008a1120  1f 82 5c ea  TST X16, X28, LSR #32
0x008a1124  40 00 00 54  B EQ, .+0x8
0x008a1128  15 85 1b 94  BL .+0x6e1454
0x008a112c  a1 83 5f f8  LDUR X1, [X29,#-8]
0x008a1130  71 3b 40 91  ADD X17, X27, #0xe, LSL #12
0x008a1134  31 e6 43 f9  LDR X17, [X17,#1992]
0x008a1138  31 70 01 b8  STUR W17, [X1,#23]

[重点3-A] 更新源 URL 选择器 0x00dac684
0x00dac700  70 3b 40 91  ADD X16, X27, #0xe, LSL #12
0x00dac704  10 be 41 f9  LDR X16, [X16,#888]
0x00dac708  e0 41 bf a9  STP X0, X16, [X15,#-16]!
0x00dac70c  28 5b fb 97  BL .+0xffffffffffed6ca0
0x00dac710  ef 41 00 91  ADD X15, X15, #0x10
0x00dac714  80 00 20 37  TBNZ W0, #4, .+0x10
0x00dac718  60 3b 40 91  ADD X0, X27, #0xe, LSL #12
0x00dac71c  00 b8 41 f9  LDR X0, [X0,#880]
0x00dac720  31 00 00 14  B .+0xc4
0x00dac724  70 83 4f f9  LDR X16, [X27,#7936]
0x00dac728  be 83 5d f8  LDUR X30, [X29,#-40]
0x00dac72c  fe 41 bf a9  STP X30, X16, [X15,#-16]!
0x00dac730  1f 5b fb 97  BL .+0xffffffffffed6c7c
0x00dac734  ef 41 00 91  ADD X15, X15, #0x10
0x00dac738  80 00 20 37  TBNZ W0, #4, .+0x10
0x00dac73c  60 3b 40 91  ADD X0, X27, #0xe, LSL #12
0x00dac740  00 d0 41 f9  LDR X0, [X0,#928]
0x00dac744  28 00 00 14  B .+0xa0
0x00dac748  70 5f 50 f9  LDR X16, [X27,#8376]
0x00dac74c  be 83 5d f8  LDUR X30, [X29,#-40]
0x00dac750  fe 41 bf a9  STP X30, X16, [X15,#-16]!
0x00dac754  16 5b fb 97  BL .+0xffffffffffed6c58
0x00dac758  ef 41 00 91  ADD X15, X15, #0x10
0x00dac75c  80 00 20 37  TBNZ W0, #4, .+0x10
0x00dac760  60 3b 40 91  ADD X0, X27, #0xe, LSL #12
0x00dac764  00 cc 41 f9  LDR X0, [X0,#920]
0x00dac768  1f 00 00 14  B .+0x7c
0x00dac76c  70 2b 40 91  ADD X16, X27, #0xa, LSL #12
0x00dac770  10 9a 44 f9  LDR X16, [X16,#2352]
0x00dac774  be 83 5d f8  LDUR X30, [X29,#-40]
0x00dac778  fe 41 bf a9  STP X30, X16, [X15,#-16]!
0x00dac77c  0c 5b fb 97  BL .+0xffffffffffed6c30
0x00dac780  ef 41 00 91  ADD X15, X15, #0x10
0x00dac784  80 00 20 37  TBNZ W0, #4, .+0x10
0x00dac788  60 3b 40 91  ADD X0, X27, #0xe, LSL #12
0x00dac78c  00 c0 41 f9  LDR X0, [X0,#896]
0x00dac790  15 00 00 14  B .+0x54
0x00dac794  70 2b 40 91  ADD X16, X27, #0xa, LSL #12
0x00dac798  10 9e 44 f9  LDR X16, [X16,#2360]
0x00dac79c  be 83 5d f8  LDUR X30, [X29,#-40]
0x00dac7a0  fe 41 bf a9  STP X30, X16, [X15,#-16]!
0x00dac7a4  02 5b fb 97  BL .+0xffffffffffed6c08
0x00dac7a8  ef 41 00 91  ADD X15, X15, #0x10
0x00dac7ac  80 00 20 37  TBNZ W0, #4, .+0x10
0x00dac7b0  60 3b 40 91  ADD X0, X27, #0xe, LSL #12
0x00dac7b4  00 c4 41 f9  LDR X0, [X0,#904]
0x00dac7b8  0b 00 00 14  B .+0x2c
0x00dac7bc  70 23 48 f9  LDR X16, [X27,#4160]
0x00dac7c0  be 83 5d f8  LDUR X30, [X29,#-40]
0x00dac7c4  fe 41 bf a9  STP X30, X16, [X15,#-16]!
0x00dac7c8  f9 5a fb 97  BL .+0xffffffffffed6be4
0x00dac7cc  ef 41 00 91  ADD X15, X15, #0x10
0x00dac7d0  80 00 20 37  TBNZ W0, #4, .+0x10
0x00dac7d4  60 7b 41 91  ADD X0, X27, #0x5e, LSL #12
0x00dac7d8  00 20 40 f9  LDR X0, [X0,#64]
0x00dac7dc  02 00 00 14  B .+0x8
0x00dac7e0  e0 03 16 aa  MOV X0, X22
0x00dac7e4  a0 83 1d f8  STUR X0, [X29,#-40]
0x00dac7e8  1f 00 16 6b  CMP W0, W22

[重点3-B] 更新字段构造 0x0085f09c

## updateApkUrl
0x0085f374  23 db f2 97  BL .+0xffffffffffcb6c8c
0x0085f378  a0 83 1d f8  STUR X0, [X29,#-40]
0x0085f37c  71 37 40 91  ADD X17, X27, #0xd, LSL #12
0x0085f380  31 22 43 f9  LDR X17, [X17,#1600]
0x0085f384  11 b0 00 b8  STUR W17, [X0,#11]
0x0085f388  a2 83 5f f8  LDUR X2, [X29,#-8]
0x0085f38c  61 37 40 91  ADD X1, X27, #0xd, LSL #12
0x0085f390  21 24 43 f9  LDR X1, [X1,#1608]
0x0085f394  2c 8f 1c 94  BL .+0x723cb0
0x0085f398  a0 83 1c f8  STUR X0, [X29,#-56]
0x0085f39c  fa cc f7 97  BL .+0xffffffffffdf33e8
0x0085f3a0  e1 03 00 aa  MOV X1, X0
0x0085f3a4  a0 83 5c f8  LDUR X0, [X29,#-56]
0x0085f3a8  a1 03 1c f8  STUR X1, [X29,#-64]
0x0085f3ac  20 b0 00 b8  STUR W0, [X1,#11]
0x0085f3b0  71 2b 40 91  ADD X17, X27, #0xa, LSL #12
0x0085f3b4  31 c6 46 f9  LDR X17, [X17,#3464]
0x0085f3b8  31 70 06 b8  STUR W17, [X1,#103]

## updateBakUrl
0x0085f4cc  80 00 20 37  TBNZ W0, #4, .+0x10
0x0085f4d0  61 2b 40 91  ADD X1, X27, #0xa, LSL #12
0x0085f4d4  21 bc 46 f9  LDR X1, [X1,#3448]
0x0085f4d8  03 00 00 14  B .+0xc
0x0085f4dc  61 37 40 91  ADD X1, X27, #0xd, LSL #12
0x0085f4e0  21 34 43 f9  LDR X1, [X1,#1640]
0x0085f4e4  a0 03 5d f8  LDUR X0, [X29,#-48]
0x0085f4e8  a1 83 1d f8  STUR X1, [X29,#-40]
0x0085f4ec  c5 da f2 97  BL .+0xffffffffffcb6b14
0x0085f4f0  e3 03 00 aa  MOV X3, X0
0x0085f4f4  a0 83 5d f8  LDUR X0, [X29,#-40]
0x0085f4f8  a3 83 1c f8  STUR X3, [X29,#-56]
0x0085f4fc  60 b0 00 b8  STUR W0, [X3,#11]
0x0085f500  a2 83 5f f8  LDUR X2, [X29,#-8]
0x0085f504  61 37 40 91  ADD X1, X27, #0xd, LSL #12
0x0085f508  21 38 43 f9  LDR X1, [X1,#1648]
0x0085f50c  ce 8e 1c 94  BL .+0x723b38
0x0085f510  a0 83 1d f8  STUR X0, [X29,#-40]
0x0085f514  9c cc f7 97  BL .+0xffffffffffdf3270
0x0085f518  e1 03 00 aa  MOV X1, X0
0x0085f51c  a0 83 5d f8  LDUR X0, [X29,#-40]
0x0085f520  a1 03 1c f8  STUR X1, [X29,#-64]
0x0085f524  20 b0 00 b8  STUR W0, [X1,#11]
0x0085f528  71 2b 40 91  ADD X17, X27, #0xa, LSL #12
0x0085f52c  31 c6 46 f9  LDR X17, [X17,#3464]
0x0085f530  31 70 06 b8  STUR W17, [X1,#103]

## updateBakUrl 再次命中
0x0085f780  20 da f2 97  BL .+0xffffffffffcb6880
0x0085f784  a0 83 1d f8  STUR X0, [X29,#-40]
0x0085f788  71 37 40 91  ADD X17, X27, #0xd, LSL #12
0x0085f78c  31 36 43 f9  LDR X17, [X17,#1640]
0x0085f790  11 b0 00 b8  STUR W17, [X0,#11]
0x0085f794  a2 83 5f f8  LDUR X2, [X29,#-8]
0x0085f798  61 37 40 91  ADD X1, X27, #0xd, LSL #12
0x0085f79c  21 58 43 f9  LDR X1, [X1,#1712]
0x0085f7a0  29 8e 1c 94  BL .+0x7238a4
0x0085f7a4  a0 83 1c f8  STUR X0, [X29,#-56]
0x0085f7a8  f7 cb f7 97  BL .+0xffffffffffdf2fdc
0x0085f7ac  e1 03 00 aa  MOV X1, X0
0x0085f7b0  a0 83 5c f8  LDUR X0, [X29,#-56]
0x0085f7b4  a1 03 1c f8  STUR X1, [X29,#-64]
0x0085f7b8  20 b0 00 b8  STUR W0, [X1,#11]
0x0085f7bc  71 2b 40 91  ADD X17, X27, #0xa, LSL #12
0x0085f7c0  31 c6 46 f9  LDR X17, [X17,#3464]

[重点3-C] 其他更新相关命中
0x0086f6a8  68 87 59 f9  LDR X8, [X27,#13064]
0x0086f6ac  63 37 40 91  ADD X3, X27, #0xd, LSL #12
0x0086f6b0  63 40 42 f9  LDR X3, [X3,#1152]
0x0086f6b4  a3 86 1c 94  BL .+0x721a8c
0x0086f6b8  41 43 40 f9  LDR X1, [X26,#128]

0x0087144c  68 87 59 f9  LDR X8, [X27,#13064]
0x00871450  63 37 40 91  ADD X3, X27, #0xd, LSL #12
0x00871454  63 38 40 f9  LDR X3, [X3,#112]
0x00871458  3a 7f 1c 94  BL .+0x71fce8

0x00871984  80 00 20 37  TBNZ W0, #4, .+0x10
0x00871988  60 37 40 91  ADD X0, X27, #0xd, LSL #12
0x0087198c  00 44 40 f9  LDR X0, [X0,#136]
0x00871990  05 00 00 14  B .+0x14
0x00871994  60 6f 59 f9  LDR X0, [X27,#13016]
0x00871998  03 00 00 14  B .+0xc
0x0087199c  60 37 40 91  ADD X0, X27, #0xd, LSL #12
0x008719a0  00 48 40 f9  LDR X0, [X0,#144]
0x008719a4  e2 03 00 aa  MOV X2, X0
0x008719a8  a1 83 54 f8  LDUR X1, [X29,#-184]
0x008719ac  a0 03 54 f8  LDUR X0, [X29,#-192]
0x008719b0  1f 00 16 6b  CMP W0, W22
0x008719b4  c0 2d 00 54  B EQ, .+0x5b8
0x008719b8  e2 01 bf a9  STP X2, X0, [X15,#-16]!
0x008719bc  91 f7 ef 97  BL .+0xffffffffffbfde44
0x008719c0  ef 41 00 91  ADD X15, X15, #0x10
0x008719c4  e0 8d 1f f8  STR X0, [X15,#-8]!

0x008a8f84  e2 03 03 aa  MOV X2, X3
0x008a8f88  61 9f 40 91  ADD X1, X27, #0x27, LSL #12
0x008a8f8c  21 38 42 f9  LDR X1, [X1,#1136]
0x008a8f90  2d 68 1b 94  BL .+0x6da0b4
0x008a8f94  e1 03 00 aa  MOV X1, X0
0x008a8f98  a0 03 5f f8  LDUR X0, [X29,#-16]
0x008a8f9c  01 30 03 b8  STUR W1, [X0,#51]
0x008a8fa0  e1 8d 1f f8  STR X1, [X15,#-8]!
0x008a8fa4  ca 25 ef 97  BL .+0xffffffffffbc9728
0x008a8fa8  ef 21 00 91  ADD X15, X15, #0x8
