0x00460038  fd 79 bf a9  STP X29, X30, [X15,#-16]!
0x0046003c  fd 03 0f aa  MOV X29, X15
0x00460040  00 00 20 d4  BRK #0x0
0x00460044  fd 79 bf a9  STP X29, X30, [X15,#-16]!
0x00460048  fd 03 0f aa  MOV X29, X15
0x0046004c  a4 f0 40 f8  LDUR X4, [X5,#15]
0x00460050  82 70 41 b8  LDUR W2, [X4,#23]
0x00460054  b0 0b 02 8b  ADD X16, X29, X2, LSL #2
0x00460058  06 06 40 f9  LDR X6, [X16,#8]
0x0046005c  ff 8d 1f f8  STR XZR, [X15,#-8]!
0x00460060  e6 8d 1f f8  STR X6, [X15,#-8]!
0x00460064  e5 8d 1f f8  STR X5, [X15,#-8]!
0x00460068  e4 8d 1f f8  STR X4, [X15,#-8]!
0x0046006c  83 f0 40 b8  LDUR W3, [X4,#15]
0x00460070  50 04 00 11  ADD W16, W2, #0x1
0x00460074  7f 00 00 71  CMP W3, #0x0
0x00460078  42 04 90 1a  CSINC W2, W2, W16, EQ
0x0046007c  e1 03 16 aa  MOV X1, X22
0x00460080  78 13 40 f9  LDR X24, [X27,#32]
0x00460084  1e 73 40 f8  LDUR X30, [X24,#7]
0x00460088  c0 03 3f d6  BLR X30
0x0046008c  e0 8d 1f f8  STR X0, [X15,#-8]!
0x00460090  42 7c 41 93  SBFX X2, X2, #1, #31
0x00460094  a1 0f 02 8b  ADD X1, X29, X2, LSL #3
0x00460098  21 20 00 91  ADD X1, X1, #0x8
0x0046009c  03 3c 00 91  ADD X3, X0, #0xf
0x004600a0  5f 00 1f eb  CMP X2, XZR
0x004600a4  6d 02 00 54  B LE, .+0x4c
0x004600a8  27 00 40 f9  LDR X7, [X1]
0x004600ac  21 20 00 d1  SUB X1, X1, #0x8
0x004600b0  63 10 00 91  ADD X3, X3, #0x4
0x004600b4  42 04 00 d1  SUB X2, X2, #0x1
0x004600b8  67 c0 1f b8  STUR W7, [X3,#-4]
0x004600bc  87 01 00 36  TBZ W7, #0, .+0x30
0x004600c0  10 f0 5f 38  LDURB W16, [X0,#-1]
0x004600c4  f1 f0 5f 38  LDURB W17, [X7,#-1]
0x004600c8  30 0a 50 8a  AND X16, X17, X16, LSR #2
0x004600cc  1f 82 5c ea  TST X16, X28, LSR #32
0x004600d0  e0 00 00 54  B EQ, .+0x1c
0x004600d4  e0 09 bf a9  STP X0, X2, [X15,#-16]!
0x004600d8  e2 03 00 aa  MOV X2, X0
0x004600dc  e0 03 07 aa  MOV X0, X7
0x004600e0  5e cb 42 f9  LDR X30, [X26,#1424]
0x004600e4  c0 03 3f d6  BLR X30
0x004600e8  e0 09 c1 a8  LDP X0, X2, [X15],#16
0x004600ec  ed ff ff 17  B .+0xffffffffffffffb4
0x004600f0  45 df 41 f9  LDR X5, [X26,#952]
0x004600f4  84 00 80 d2  MOV X4, #0x4
0x004600f8  5e 0b 41 f9  LDR X30, [X26,#528]
0x004600fc  c0 03 3f d6  BLR X30
0x00460100  ef 81 00 91  ADD X15, X15, #0x20
0x00460104  e0 85 40 f8  LDR X0, [X15],#8
0x00460108  ef 03 1d aa  MOV X15, X29
0x0046010c  fd 79 c1 a8  LDP X29, X30, [X15],#16
0x00460110  c0 03 5f d6  RET X30
0x00460114  60 30 41 b8  LDUR W0, [X3,#19]
0x00460118  24 30 41 b8  LDUR W4, [X1,#19]
0x0046011c  84 00 00 8a  AND X4, X4, X0
0x00460120  9f 00 00 eb  CMP X4, X0
0x00460124  61 00 00 54  B NE, .+0xc
0x00460128  e0 03 01 aa  MOV X0, X1
0x0046012c  c0 03 5f d6  RET X30
0x00460130  60 70 40 b8  LDUR W0, [X3,#7]
0x00460134  00 80 1c 8b  ADD X0, X0, X28, LSL #32
0x00460138  00 3c 00 91  ADD X0, X0, #0xf
0x0046013c  05 fc df 88  LDAR W5, [X0]
0x00460140  bf 00 00 71  CMP W5, #0x0
0x00460144  20 01 00 54  B EQ, .+0x24
0x00460148  bf 00 02 eb  CMP X5, X2
0x0046014c  a1 00 00 54  B NE, .+0x14
0x00460150  04 04 40 b9  LDR W4, [X0,#4]
0x00460154  84 80 1c 8b  ADD X4, X4, X28, LSL #32
0x00460158  9f 00 01 eb  CMP X4, X1
0x0046015c  00 02 00 54  B EQ, .+0x40
0x00460160  00 30 00 91  ADD X0, X0, #0xc
0x00460164  f6 ff ff 17  B .+0xffffffffffffffd8
0x00460168  fd 79 bf a9  STP X29, X30, [X15,#-16]!
0x0046016c  fd 03 0f aa  MOV X29, X15
0x00460170  e3 59 bf a9  STP X3, X22, [X15,#-16]!
0x00460174  e1 09 bf a9  STP X1, X2, [X15,#-16]!
0x00460178  45 db 41 f9  LDR X5, [X26,#944]
0x0046017c  64 00 80 d2  MOV X4, #0x3
0x00460180  5e 0b 41 f9  LDR X30, [X26,#528]
0x00460184  c0 03 3f d6  BLR X30
0x00460188  ef 61 00 91  ADD X15, X15, #0x18
0x0046018c  e0 85 40 f8  LDR X0, [X15],#8
0x00460190  ef 03 1d aa  MOV X15, X29
0x00460194  fd 79 c1 a8  LDP X29, X30, [X15],#16
0x00460198  c0 03 5f d6  RET X30
0x0046019c  00 08 40 b9  LDR W0, [X0,#8]
0x004601a0  00 80 1c 8b  ADD X0, X0, X28, LSL #32
0x004601a4  c0 03 5f d6  RET X30
0x004601a8  60 30 41 b8  LDUR W0, [X3,#19]
0x004601ac  44 30 41 b8  LDUR W4, [X2,#19]
0x004601b0  84 00 00 8a  AND X4, X4, X0
0x004601b4  9f 00 00 eb  CMP X4, X0
0x004601b8  61 00 00 54  B NE, .+0xc
0x004601bc  e0 03 02 aa  MOV X0, X2
0x004601c0  c0 03 5f d6  RET X30
0x004601c4  60 70 40 b8  LDUR W0, [X3,#7]
0x004601c8  00 80 1c 8b  ADD X0, X0, X28, LSL #32
0x004601cc  00 3c 00 91  ADD X0, X0, #0xf
0x004601d0  05 fc df 88  LDAR W5, [X0]
0x004601d4  bf 00 00 71  CMP W5, #0x0
0x004601d8  20 01 00 54  B EQ, .+0x24
0x004601dc  bf 00 02 eb  CMP X5, X2
0x004601e0  a1 00 00 54  B NE, .+0x14
0x004601e4  04 04 40 b9  LDR W4, [X0,#4]
0x004601e8  84 80 1c 8b  ADD X4, X4, X28, LSL #32
0x004601ec  9f 00 01 eb  CMP X4, X1
0x004601f0  00 02 00 54  B EQ, .+0x40
0x004601f4  00 30 00 91  ADD X0, X0, #0xc
0x004601f8  f6 ff ff 17  B .+0xffffffffffffffd8
0x004601fc  fd 79 bf a9  STP X29, X30, [X15,#-16]!
0x00460200  fd 03 0f aa  MOV X29, X15
0x00460204  e3 59 bf a9  STP X3, X22, [X15,#-16]!
0x00460208  e1 09 bf a9  STP X1, X2, [X15,#-16]!
0x0046020c  45 db 41 f9  LDR X5, [X26,#944]
0x00460210  64 00 80 d2  MOV X4, #0x3
0x00460214  5e 0b 41 f9  LDR X30, [X26,#528]
0x00460218  c0 03 3f d6  BLR X30
0x0046021c  ef 61 00 91  ADD X15, X15, #0x18
0x00460220  e0 85 40 f8  LDR X0, [X15],#8
0x00460224  ef 03 1d aa  MOV X15, X29
0x00460228  fd 79 c1 a8  LDP X29, X30, [X15],#16
0x0046022c  c0 03 5f d6  RET X30
0x00460230  00 08 40 b9  LDR W0, [X0,#8]
0x00460234  00 80 1c 8b  ADD X0, X0, X28, LSL #32
0x00460238  c0 03 5f d6  RET X30
0x0046023c  60 70 40 b8  LDUR W0, [X3,#7]
0x00460240  00 80 1c 8b  ADD X0, X0, X28, LSL #32
0x00460244  00 3c 00 91  ADD X0, X0, #0xf
0x00460248  05 fc df 88  LDAR W5, [X0]
0x0046024c  bf 00 00 71  CMP W5, #0x0
0x00460250  20 01 00 54  B EQ, .+0x24
0x00460254  bf 00 02 eb  CMP X5, X2
0x00460258  a1 00 00 54  B NE, .+0x14
0x0046025c  04 04 40 b9  LDR W4, [X0,#4]
0x00460260  84 80 1c 8b  ADD X4, X4, X28, LSL #32
0x00460264  9f 00 01 eb  CMP X4, X1
0x00460268  00 02 00 54  B EQ, .+0x40
0x0046026c  00 30 00 91  ADD X0, X0, #0xc
0x00460270  f6 ff ff 17  B .+0xffffffffffffffd8
0x00460274  fd 79 bf a9  STP X29, X30, [X15,#-16]!
0x00460278  fd 03 0f aa  MOV X29, X15
0x0046027c  e3 59 bf a9  STP X3, X22, [X15,#-16]!
0x00460280  e1 09 bf a9  STP X1, X2, [X15,#-16]!
0x00460284  45 db 41 f9  LDR X5, [X26,#944]
0x00460288  64 00 80 d2  MOV X4, #0x3
0x0046028c  5e 0b 41 f9  LDR X30, [X26,#528]
0x00460290  c0 03 3f d6  BLR X30
0x00460294  ef 61 00 91  ADD X15, X15, #0x18
0x00460298  e0 85 40 f8  LDR X0, [X15],#8
0x0046029c  ef 03 1d aa  MOV X15, X29
0x004602a0  fd 79 c1 a8  LDP X29, X30, [X15],#16
0x004602a4  c0 03 5f d6  RET X30
0x004602a8  00 08 40 b9  LDR W0, [X0,#8]
0x004602ac  00 80 1c 8b  ADD X0, X0, X28, LSL #32
0x004602b0  c0 03 5f d6  RET X30
0x004602b4  fd 79 bf a9  STP X29, X30, [X15,#-16]!
0x004602b8  fd 03 0f aa  MOV X29, X15
0x004602bc  f6 8d 1f f8  STR X22, [X15,#-8]!
0x004602c0  e3 8d 1f f8  STR X3, [X15,#-8]!
0x004602c4  e2 8d 1f f8  STR X2, [X15,#-8]!
0x004602c8  e1 8d 1f f8  STR X1, [X15,#-8]!
0x004602cc  45 d7 41 f9  LDR X5, [X26,#936]
0x004602d0  64 00 80 d2  MOV X4, #0x3
0x004602d4  5e 0b 41 f9  LDR X30, [X26,#528]
0x004602d8  c0 03 3f d6  BLR X30
0x004602dc  ef 61 00 91  ADD X15, X15, #0x18
0x004602e0  e0 85 40 f8  LDR X0, [X15],#8
0x004602e4  ef 03 1d aa  MOV X15, X29
0x004602e8  fd 79 c1 a8  LDP X29, X30, [X15],#16
0x004602ec  c0 03 5f d6  RET X30
0x004602f0  fd 79 bf a9  STP X29, X30, [X15,#-16]!
0x004602f4  fd 03 0f aa  MOV X29, X15
0x004602f8  f6 8d 1f f8  STR X22, [X15,#-8]!
0x004602fc  e0 8d 1f f8  STR X0, [X15,#-8]!
0x00460300  e8 8d 1f f8  STR X8, [X15,#-8]!
0x00460304  e2 8d 1f f8  STR X2, [X15,#-8]!
0x00460308  e1 8d 1f f8  STR X1, [X15,#-8]!
0x0046030c  e3 8d 1f f8  STR X3, [X15,#-8]!
0x00460310  45 c7 41 f9  LDR X5, [X26,#904]
0x00460314  a4 00 80 d2  MOV X4, #0x5
0x00460318  5e 0b 41 f9  LDR X30, [X26,#528]
0x0046031c  c0 03 3f d6  BLR X30
0x00460320  ef a1 00 91  ADD X15, X15, #0x28
0x00460324  e0 85 40 f8  LDR X0, [X15],#8
0x00460328  ef 03 1d aa  MOV X15, X29
0x0046032c  fd 79 c1 a8  LDP X29, X30, [X15],#16
0x00460330  c0 03 5f d6  RET X30
0x00460334  fd 79 bf a9  STP X29, X30, [X15,#-16]!
0x00460338  fd 03 0f aa  MOV X29, X15
0x0046033c  f6 8d 1f f8  STR X22, [X15,#-8]!
0x00460340  e0 8d 1f f8  STR X0, [X15,#-8]!
0x00460344  45 d3 41 f9  LDR X5, [X26,#928]
0x00460348  24 00 80 d2  MOV X4, #0x1
0x0046034c  5e 0b 41 f9  LDR X30, [X26,#528]
0x00460350  c0 03 3f d6  BLR X30
0x00460354  00 00 20 d4  BRK #0x0
0x00460358  fd 79 bf a9  STP X29, X30, [X15,#-16]!
0x0046035c  fd 03 0f aa  MOV X29, X15
0x00460360  f6 8d 1f f8  STR X22, [X15,#-8]!
0x00460364  e0 8d 1f f8  STR X0, [X15,#-8]!
0x00460368  e1 8d 1f f8  STR X1, [X15,#-8]!
0x0046036c  45 17 42 f9  LDR X5, [X26,#1064]
0x00460370  44 00 80 d2  MOV X4, #0x2
0x00460374  5e 0b 41 f9  LDR X30, [X26,#528]
0x00460378  c0 03 3f d6  BLR X30
0x0046037c  00 00 20 d4  BRK #0x0
0x00460380  fd 79 bf a9  STP X29, X30, [X15,#-16]!
0x00460384  fd 03 0f aa  MOV X29, X15
0x00460388  f6 8d 1f f8  STR X22, [X15,#-8]!
0x0046038c  e0 8d 1f f8  STR X0, [X15,#-8]!
0x00460390  45 1f 42 f9  LDR X5, [X26,#1080]
0x00460394  24 00 80 d2  MOV X4, #0x1
0x00460398  5e 0b 41 f9  LDR X30, [X26,#528]
0x0046039c  c0 03 3f d6  BLR X30
0x004603a0  00 00 20 d4  BRK #0x0
0x004603a4  fd 79 bf a9  STP X29, X30, [X15,#-16]!
0x004603a8  fd 03 0f aa  MOV X29, X15
0x004603ac  e1 09 bf a9  STP X1, X2, [X15,#-16]!
0x004603b0  e1 8d 1f f8  STR X1, [X15,#-8]!
0x004603b4  40 30 41 b8  LDUR W0, [X2,#19]
0x004603b8  00 80 1c 8b  ADD X0, X0, X28, LSL #32
0x004603bc  1e 70 40 f8  LDUR X30, [X0,#7]
0x004603c0  c0 03 3f d6  BLR X30
0x004603c4  ef 21 00 91  ADD X15, X15, #0x8
0x004603c8  e1 09 c1 a8  LDP X1, X2, [X15],#16
0x004603cc  44 70 41 b8  LDUR W4, [X2,#23]
0x004603d0  84 80 1c 8b  ADD X4, X4, X28, LSL #32
0x004603d4  84 7c 41 93  SBFX X4, X4, #1, #31
0x004603d8  84 f8 7f d3  LSL X4, X4, #1
0x004603dc  23 04 04 8b  ADD X3, X1, X4, LSL #1
0x004603e0  63 04 00 d1  SUB X3, X3, #0x1
0x004603e4  64 00 40 b9  LDR W4, [X3]
0x004603e8  84 80 1c 8b  ADD X4, X4, X28, LSL #32
0x004603ec  70 17 40 f9  LDR X16, [X27,#40]
0x004603f0  9f 00 10 6b  CMP W4, W16
0x004603f4  a1 01 00 54  B NE, .+0x34
0x004603f8  60 00 00 b9  STR W0, [X3]
0x004603fc  00 01 00 36  TBZ W0, #0, .+0x20
0x00460400  30 f0 5f 38  LDURB W16, [X1,#-1]
0x00460404  11 f0 5f 38  LDURB W17, [X0,#-1]
0x00460408  30 0a 50 8a  AND X16, X17, X16, LSR #2
0x0046040c  1f 82 5c ea  TST X16, X28, LSR #32
0x00460410  60 00 00 54  B EQ, .+0xc
0x00460414  5e c7 42 f9  LDR X30, [X26,#1416]
0x00460418  c0 03 3f d6  BLR X30
0x0046041c  ef 03 1d aa  MOV X15, X29
0x00460420  fd 79 c1 a8  LDP X29, X30, [X15],#16
0x00460424  c0 03 5f d6  RET X30
0x00460428  f6 8d 1f f8  STR X22, [X15,#-8]!
0x0046042c  e2 8d 1f f8  STR X2, [X15,#-8]!
0x00460430  45 37 42 f9  LDR X5, [X26,#1128]
0x00460434  24 00 80 d2  MOV X4, #0x1
0x00460438  5e 0b 41 f9  LDR X30, [X26,#528]
0x0046043c  c0 03 3f d6  BLR X30
0x00460440  00 00 20 d4  BRK #0x0
0x00460444  fd 79 bf a9  STP X29, X30, [X15,#-16]!
0x00460448  fd 03 0f aa  MOV X29, X15
0x0046044c  e1 09 bf a9  STP X1, X2, [X15,#-16]!
0x00460450  e1 8d 1f f8  STR X1, [X15,#-8]!
0x00460454  40 30 41 b8  LDUR W0, [X2,#19]
0x00460458  00 80 1c 8b  ADD X0, X0, X28, LSL #32
0x0046045c  1e 70 40 f8  LDUR X30, [X0,#7]
0x00460460  c0 03 3f d6  BLR X30
0x00460464  ef 21 00 91  ADD X15, X15, #0x8
0x00460468  e1 09 c1 a8  LDP X1, X2, [X15],#16
0x0046046c  44 70 41 b8  LDUR W4, [X2,#23]
0x00460470  84 80 1c 8b  ADD X4, X4, X28, LSL #32
0x00460474  84 7c 41 93  SBFX X4, X4, #1, #31
0x00460478  84 f8 7f d3  LSL X4, X4, #1
0x0046047c  23 04 04 8b  ADD X3, X1, X4, LSL #1
0x00460480  63 04 00 d1  SUB X3, X3, #0x1
0x00460484  60 00 00 b9  STR W0, [X3]
0x00460488  00 01 00 36  TBZ W0, #0, .+0x20
0x0046048c  30 f0 5f 38  LDURB W16, [X1,#-1]
0x00460490  11 f0 5f 38  LDURB W17, [X0,#-1]
0x00460494  30 0a 50 8a  AND X16, X17, X16, LSR #2
0x00460498  1f 82 5c ea  TST X16, X28, LSR #32
0x0046049c  60 00 00 54  B EQ, .+0xc
0x004604a0  5e c7 42 f9  LDR X30, [X26,#1416]
0x004604a4  c0 03 3f d6  BLR X30
0x004604a8  ef 03 1d aa  MOV X15, X29
0x004604ac  fd 79 c1 a8  LDP X29, X30, [X15],#16
0x004604b0  c0 03 5f d6  RET X30
0x004604b4  fd 79 bf a9  STP X29, X30, [X15,#-16]!
0x004604b8  fd 03 0f aa  MOV X29, X15
0x004604bc  f6 8d 1f f8  STR X22, [X15,#-8]!
0x004604c0  e1 8d 1f f8  STR X1, [X15,#-8]!
0x004604c4  e2 8d 1f f8  STR X2, [X15,#-8]!
0x004604c8  45 2f 42 f9  LDR X5, [X26,#1112]
0x004604cc  44 00 80 d2  MOV X4, #0x2
0x004604d0  5e 0b 41 f9  LDR X30, [X26,#528]
0x004604d4  c0 03 3f d6  BLR X30
0x004604d8  ef 41 00 91  ADD X15, X15, #0x10
0x004604dc  e0 85 40 f8  LDR X0, [X15],#8
0x004604e0  ef 03 1d aa  MOV X15, X29
0x004604e4  fd 79 c1 a8  LDP X29, X30, [X15],#16
0x004604e8  c0 03 5f d6  RET X30
0x004604ec  fd 79 bf a9  STP X29, X30, [X15,#-16]!
0x004604f0  fd 03 0f aa  MOV X29, X15
0x004604f4  f6 8d 1f f8  STR X22, [X15,#-8]!
0x004604f8  e0 8d 1f f8  STR X0, [X15,#-8]!
0x004604fc  45 33 42 f9  LDR X5, [X26,#1120]
0x00460500  24 00 80 d2  MOV X4, #0x1
0x00460504  5e 0b 41 f9  LDR X30, [X26,#528]
0x00460508  c0 03 3f d6  BLR X30
0x0046050c  ef 21 00 91  ADD X15, X15, #0x8
0x00460510  e0 85 40 f8  LDR X0, [X15],#8
0x00460514  ef 03 1d aa  MOV X15, X29
0x00460518  fd 79 c1 a8  LDP X29, X30, [X15],#16
0x0046051c  c0 03 5f d6  RET X30
0x00460520  f3 03 1e aa  MOV X19, X30
0x00460524  2a 00 80 d2  MOV X10, #0x1
0x00460528  5d 4b 00 f9  STR X29, [X26,#144]
0x0046052c  4a 33 03 f9  STR X10, [X26,#1632]
0x00460530  49 5b 00 f9  STR X9, [X26,#176]
0x00460534  4a 00 80 d2  MOV X10, #0x2
0x00460538  4a 23 03 f9  STR X10, [X26,#1600]
0x0046053c  11 c9 80 d2  MOV X17, #0x648
0x00460540  51 03 11 8b  ADD X17, X26, X17
0x00460544  2a 7e 5f c8  LDXR X10, [X17]
0x00460548  5f 01 00 f1  CMP X10, #0x0
0x0046054c  a1 00 00 54  B NE, .+0x14
0x00460550  aa 00 80 d2  MOV X10, #0x5
0x00460554  2a 7e 10 c8  STXR W16, X10, [X17]
0x00460558  b0 00 00 b4  CBZ X16, .+0x14
0x0046055c  fa ff ff 17  B .+0xffffffffffffffe8
0x00460560  51 f7 40 f9  LDR X17, [X26,#488]
0x00460564  31 72 40 f8  LDUR X17, [X17,#7]
0x00460568  20 02 3f d6  BLR X17
0x0046056c  f9 03 00 91  MOV X25, SP
0x00460570  ff 01 00 91  MOV SP, X15
0x00460574  20 01 3f d6  BLR X9
0x00460578  ef 03 00 91  MOV X15, SP
0x0046057c  3f 03 00 91  MOV SP, X25
0x00460580  11 c9 80 d2  MOV X17, #0x648
0x00460584  51 03 11 8b  ADD X17, X26, X17
0x00460588  2a 7e 5f c8  LDXR X10, [X17]
0x0046058c  5f 15 00 f1  CMP X10, #0x5
0x00460590  a1 00 00 54  B NE, .+0x14
0x00460594  0a 00 80 d2  MOV X10, #0x0
0x00460598  2a 7e 10 c8  STXR W16, X10, [X17]
0x0046059c  b0 00 00 b4  CBZ X16, .+0x14
0x004605a0  fa ff ff 17  B .+0xffffffffffffffe8
0x004605a4  51 fb 40 f9  LDR X17, [X26,#496]
0x004605a8  31 72 40 f8  LDUR X17, [X17,#7]
0x004605ac  20 02 3f d6  BLR X17
0x004605b0  0a 01 80 d2  MOV X10, #0x8
0x004605b4  4a 5b 00 f9  STR X10, [X26,#176]
0x004605b8  2a 00 80 d2  MOV X10, #0x1
0x004605bc  4a 23 03 f9  STR X10, [X26,#1600]
0x004605c0  5f 4b 00 f9  STR XZR, [X26,#144]
0x004605c4  0a 00 80 d2  MOV X10, #0x0
0x004605c8  4a 33 03 f9  STR X10, [X26,#1632]
0x004605cc  60 02 5f d6  RET X19
0x004605d0  fd 79 bf a9  STP X29, X30, [X15,#-16]!
0x004605d4  fd 03 0f aa  MOV X29, X15
0x004605d8  ff 0d 9f 3c  STR Q31, [X15,#-16]!
0x004605dc  fe 0d 9f 3c  STR Q30, [X15,#-16]!
0x004605e0  fd 0d 9f 3c  STR Q29, [X15,#-16]!
0x004605e4  fc 0d 9f 3c  STR Q28, [X15,#-16]!
0x004605e8  fb 0d 9f 3c  STR Q27, [X15,#-16]!
0x004605ec  fa 0d 9f 3c  STR Q26, [X15,#-16]!
0x004605f0  f9 0d 9f 3c  STR Q25, [X15,#-16]!
0x004605f4  f8 0d 9f 3c  STR Q24, [X15,#-16]!
0x004605f8  f7 0d 9f 3c  STR Q23, [X15,#-16]!
0x004605fc  f6 0d 9f 3c  STR Q22, [X15,#-16]!
0x00460600  f5 0d 9f 3c  STR Q21, [X15,#-16]!
0x00460604  f4 0d 9f 3c  STR Q20, [X15,#-16]!
0x00460608  f3 0d 9f 3c  STR Q19, [X15,#-16]!
0x0046060c  f2 0d 9f 3c  STR Q18, [X15,#-16]!
0x00460610  f1 0d 9f 3c  STR Q17, [X15,#-16]!
0x00460614  f0 0d 9f 3c  STR Q16, [X15,#-16]!
0x00460618  ef 0d 9f 3c  STR Q15, [X15,#-16]!
0x0046061c  ee 0d 9f 3c  STR Q14, [X15,#-16]!
0x00460620  ed 0d 9f 3c  STR Q13, [X15,#-16]!
0x00460624  ec 0d 9f 3c  STR Q12, [X15,#-16]!
0x00460628  eb 0d 9f 3c  STR Q11, [X15,#-16]!
0x0046062c  ea 0d 9f 3c  STR Q10, [X15,#-16]!
0x00460630  e9 0d 9f 3c  STR Q9, [X15,#-16]!
0x00460634  e8 0d 9f 3c  STR Q8, [X15,#-16]!
0x00460638  e7 0d 9f 3c  STR Q7, [X15,#-16]!
0x0046063c  e6 0d 9f 3c  STR Q6, [X15,#-16]!
0x00460640  e5 0d 9f 3c  STR Q5, [X15,#-16]!
0x00460644  e4 0d 9f 3c  STR Q4, [X15,#-16]!
0x00460648  e3 0d 9f 3c  STR Q3, [X15,#-16]!
0x0046064c  e2 0d 9f 3c  STR Q2, [X15,#-16]!
0x00460650  e1 0d 9f 3c  STR Q1, [X15,#-16]!
0x00460654  e0 0d 9f 3c  STR Q0, [X15,#-16]!
0x00460658  fc 79 bf a9  STP X28, X30, [X15,#-16]!
0x0046065c  fa 6d bf a9  STP X26, X27, [X15,#-16]!
0x00460660  f8 65 bf a9  STP X24, X25, [X15,#-16]!
0x00460664  f6 5d bf a9  STP X22, X23, [X15,#-16]!
0x00460668  f4 55 bf a9  STP X20, X21, [X15,#-16]!
0x0046066c  f2 4d bf a9  STP X18, X19, [X15,#-16]!
0x00460670  f0 45 bf a9  STP X16, X17, [X15,#-16]!
0x00460674  ed 39 bf a9  STP X13, X14, [X15,#-16]!
0x00460678  eb 31 bf a9  STP X11, X12, [X15,#-16]!
0x0046067c  e9 29 bf a9  STP X9, X10, [X15,#-16]!
0x00460680  e7 21 bf a9  STP X7, X8, [X15,#-16]!
0x00460684  e5 19 bf a9  STP X5, X6, [X15,#-16]!
0x00460688  e3 11 bf a9  STP X3, X4, [X15,#-16]!
0x0046068c  e1 09 bf a9  STP X1, X2, [X15,#-16]!
0x00460690  e0 8d 1f f8  STR X0, [X15,#-8]!
0x00460694  f3 03 00 91  MOV X19, SP
0x00460698  f4 03 0f aa  MOV X20, X15
0x0046069c  ef ed 7c 92  AND X15, X15, #0xfffffffffffffff0
0x004606a0  ff 01 00 91  MOV SP, X15
0x004606a4  00 00 80 d2  MOV X0, #0x0
0x004606a8  40 23 03 f9  STR X0, [X26,#1600]
0x004606ac  40 ab 42 f9  LDR X0, [X26,#1360]
0x004606b0  00 00 3f d6  BLR X0
0x004606b4  ef 03 14 aa  MOV X15, X20
0x004606b8  7f 02 00 91  MOV SP, X19
0x004606bc  e0 85 40 f8  LDR X0, [X15],#8
0x004606c0  e1 09 c1 a8  LDP X1, X2, [X15],#16
0x004606c4  e3 11 c1 a8  LDP X3, X4, [X15],#16
0x004606c8  e5 19 c1 a8  LDP X5, X6, [X15],#16
0x004606cc  e7 21 c1 a8  LDP X7, X8, [X15],#16
0x004606d0  e9 29 c1 a8  LDP X9, X10, [X15],#16
0x004606d4  eb 31 c1 a8  LDP X11, X12, [X15],#16
0x004606d8  ed 39 c1 a8  LDP X13, X14, [X15],#16
0x004606dc  f0 45 c1 a8  LDP X16, X17, [X15],#16
0x004606e0  f2 4d c1 a8  LDP X18, X19, [X15],#16
0x004606e4  f4 55 c1 a8  LDP X20, X21, [X15],#16
0x004606e8  f6 5d c1 a8  LDP X22, X23, [X15],#16
0x004606ec  f8 65 c1 a8  LDP X24, X25, [X15],#16
0x004606f0  fa 6d c1 a8  LDP X26, X27, [X15],#16
0x004606f4  fc 79 c1 a8  LDP X28, X30, [X15],#16
0x004606f8  e0 05 c1 3c  LDR Q0, [X15],#16
0x004606fc  e1 05 c1 3c  LDR Q1, [X15],#16
0x00460700  e2 05 c1 3c  LDR Q2, [X15],#16
0x00460704  e3 05 c1 3c  LDR Q3, [X15],#16
0x00460708  e4 05 c1 3c  LDR Q4, [X15],#16
0x0046070c  e5 05 c1 3c  LDR Q5, [X15],#16
0x00460710  e6 05 c1 3c  LDR Q6, [X15],#16
0x00460714  e7 05 c1 3c  LDR Q7, [X15],#16
0x00460718  e8 05 c1 3c  LDR Q8, [X15],#16
0x0046071c  e9 05 c1 3c  LDR Q9, [X15],#16
0x00460720  ea 05 c1 3c  LDR Q10, [X15],#16
0x00460724  eb 05 c1 3c  LDR Q11, [X15],#16
0x00460728  ec 05 c1 3c  LDR Q12, [X15],#16
0x0046072c  ed 05 c1 3c  LDR Q13, [X15],#16
0x00460730  ee 05 c1 3c  LDR Q14, [X15],#16
0x00460734  ef 05 c1 3c  LDR Q15, [X15],#16
0x00460738  f0 05 c1 3c  LDR Q16, [X15],#16
0x0046073c  f1 05 c1 3c  LDR Q17, [X15],#16
0x00460740  f2 05 c1 3c  LDR Q18, [X15],#16
0x00460744  f3 05 c1 3c  LDR Q19, [X15],#16
0x00460748  f4 05 c1 3c  LDR Q20, [X15],#16
0x0046074c  f5 05 c1 3c  LDR Q21, [X15],#16
0x00460750  f6 05 c1 3c  LDR Q22, [X15],#16
0x00460754  f7 05 c1 3c  LDR Q23, [X15],#16
0x00460758  f8 05 c1 3c  LDR Q24, [X15],#16
0x0046075c  f9 05 c1 3c  LDR Q25, [X15],#16
0x00460760  fa 05 c1 3c  LDR Q26, [X15],#16
0x00460764  fb 05 c1 3c  LDR Q27, [X15],#16
0x00460768  fc 05 c1 3c  LDR Q28, [X15],#16
0x0046076c  fd 05 c1 3c  LDR Q29, [X15],#16
0x00460770  fe 05 c1 3c  LDR Q30, [X15],#16
0x00460774  ff 05 c1 3c  LDR Q31, [X15],#16
0x00460778  ef 03 1d aa  MOV X15, X29
0x0046077c  fd 79 c1 a8  LDP X29, X30, [X15],#16
0x00460780  c0 03 5f d6  RET X30
0x00460784  fd 79 bf a9  STP X29, X30, [X15,#-16]!
0x00460788  fd 03 0f aa  MOV X29, X15
0x0046078c  ff 0d 9f 3c  STR Q31, [X15,#-16]!
0x00460790  fe 0d 9f 3c  STR Q30, [X15,#-16]!
0x00460794  fd 0d 9f 3c  STR Q29, [X15,#-16]!
0x00460798  fc 0d 9f 3c  STR Q28, [X15,#-16]!
0x0046079c  fb 0d 9f 3c  STR Q27, [X15,#-16]!
0x004607a0  fa 0d 9f 3c  STR Q26, [X15,#-16]!
0x004607a4  f9 0d 9f 3c  STR Q25, [X15,#-16]!
0x004607a8  f8 0d 9f 3c  STR Q24, [X15,#-16]!
0x004607ac  f7 0d 9f 3c  STR Q23, [X15,#-16]!
0x004607b0  f6 0d 9f 3c  STR Q22, [X15,#-16]!
0x004607b4  f5 0d 9f 3c  STR Q21, [X15,#-16]!
0x004607b8  f4 0d 9f 3c  STR Q20, [X15,#-16]!
0x004607bc  f3 0d 9f 3c  STR Q19, [X15,#-16]!
0x004607c0  f2 0d 9f 3c  STR Q18, [X15,#-16]!
0x004607c4  f1 0d 9f 3c  STR Q17, [X15,#-16]!
0x004607c8  f0 0d 9f 3c  STR Q16, [X15,#-16]!
0x004607cc  ef 0d 9f 3c  STR Q15, [X15,#-16]!
0x004607d0  ee 0d 9f 3c  STR Q14, [X15,#-16]!
0x004607d4  ed 0d 9f 3c  STR Q13, [X15,#-16]!
0x004607d8  ec 0d 9f 3c  STR Q12, [X15,#-16]!
0x004607dc  eb 0d 9f 3c  STR Q11, [X15,#-16]!
0x004607e0  ea 0d 9f 3c  STR Q10, [X15,#-16]!
0x004607e4  e9 0d 9f 3c  STR Q9, [X15,#-16]!
0x004607e8  e8 0d 9f 3c  STR Q8, [X15,#-16]!
0x004607ec  e7 0d 9f 3c  STR Q7, [X15,#-16]!
0x004607f0  e6 0d 9f 3c  STR Q6, [X15,#-16]!
0x004607f4  e5 0d 9f 3c  STR Q5, [X15,#-16]!
0x004607f8  e4 0d 9f 3c  STR Q4, [X15,#-16]!
0x004607fc  e3 0d 9f 3c  STR Q3, [X15,#-16]!
0x00460800  e2 0d 9f 3c  STR Q2, [X15,#-16]!
0x00460804  e1 0d 9f 3c  STR Q1, [X15,#-16]!
0x00460808  e0 0d 9f 3c  STR Q0, [X15,#-16]!
0x0046080c  fc 79 bf a9  STP X28, X30, [X15,#-16]!
0x00460810  fa 6d bf a9  STP X26, X27, [X15,#-16]!
0x00460814  f8 65 bf a9  STP X24, X25, [X15,#-16]!
0x00460818  f6 5d bf a9  STP X22, X23, [X15,#-16]!
0x0046081c  f4 55 bf a9  STP X20, X21, [X15,#-16]!
0x00460820  f2 4d bf a9  STP X18, X19, [X15,#-16]!
0x00460824  f0 45 bf a9  STP X16, X17, [X15,#-16]!
0x00460828  ed 39 bf a9  STP X13, X14, [X15,#-16]!
0x0046082c  eb 31 bf a9  STP X11, X12, [X15,#-16]!
0x00460830  e9 29 bf a9  STP X9, X10, [X15,#-16]!
0x00460834  e7 21 bf a9  STP X7, X8, [X15,#-16]!
0x00460838  e5 19 bf a9  STP X5, X6, [X15,#-16]!
0x0046083c  e3 11 bf a9  STP X3, X4, [X15,#-16]!
0x00460840  e1 09 bf a9  STP X1, X2, [X15,#-16]!
0x00460844  e0 8d 1f f8  STR X0, [X15,#-8]!
0x00460848  f3 03 00 91  MOV X19, SP
0x0046084c  f4 03 0f aa  MOV X20, X15
0x00460850  ef ed 7c 92  AND X15, X15, #0xfffffffffffffff0
0x00460854  ff 01 00 91  MOV SP, X15
0x00460858  40 a7 42 f9  LDR X0, [X26,#1352]
0x0046085c  00 00 3f d6  BLR X0
0x00460860  ef 03 14 aa  MOV X15, X20
0x00460864  7f 02 00 91  MOV SP, X19
0x00460868  e0 85 40 f8  LDR X0, [X15],#8
0x0046086c  e1 09 c1 a8  LDP X1, X2, [X15],#16
0x00460870  e3 11 c1 a8  LDP X3, X4, [X15],#16
0x00460874  e5 19 c1 a8  LDP X5, X6, [X15],#16
0x00460878  e7 21 c1 a8  LDP X7, X8, [X15],#16
0x0046087c  e9 29 c1 a8  LDP X9, X10, [X15],#16
0x00460880  eb 31 c1 a8  LDP X11, X12, [X15],#16
0x00460884  ed 39 c1 a8  LDP X13, X14, [X15],#16
0x00460888  f0 45 c1 a8  LDP X16, X17, [X15],#16
0x0046088c  f2 4d c1 a8  LDP X18, X19, [X15],#16
0x00460890  f4 55 c1 a8  LDP X20, X21, [X15],#16
0x00460894  f6 5d c1 a8  LDP X22, X23, [X15],#16
0x00460898  f8 65 c1 a8  LDP X24, X25, [X15],#16
0x0046089c  fa 6d c1 a8  LDP X26, X27, [X15],#16
0x004608a0  fc 79 c1 a8  LDP X28, X30, [X15],#16
0x004608a4  e0 05 c1 3c  LDR Q0, [X15],#16
0x004608a8  e1 05 c1 3c  LDR Q1, [X15],#16
0x004608ac  e2 05 c1 3c  LDR Q2, [X15],#16
0x004608b0  e3 05 c1 3c  LDR Q3, [X15],#16
0x004608b4  e4 05 c1 3c  LDR Q4, [X15],#16
0x004608b8  e5 05 c1 3c  LDR Q5, [X15],#16
0x004608bc  e6 05 c1 3c  LDR Q6, [X15],#16
0x004608c0  e7 05 c1 3c  LDR Q7, [X15],#16
0x004608c4  e8 05 c1 3c  LDR Q8, [X15],#16
0x004608c8  e9 05 c1 3c  LDR Q9, [X15],#16
0x004608cc  ea 05 c1 3c  LDR Q10, [X15],#16
0x004608d0  eb 05 c1 3c  LDR Q11, [X15],#16
0x004608d4  ec 05 c1 3c  LDR Q12, [X15],#16
0x004608d8  ed 05 c1 3c  LDR Q13, [X15],#16
0x004608dc  ee 05 c1 3c  LDR Q14, [X15],#16
0x004608e0  ef 05 c1 3c  LDR Q15, [X15],#16
0x004608e4  f0 05 c1 3c  LDR Q16, [X15],#16
0x004608e8  f1 05 c1 3c  LDR Q17, [X15],#16
0x004608ec  f2 05 c1 3c  LDR Q18, [X15],#16
0x004608f0  f3 05 c1 3c  LDR Q19, [X15],#16
0x004608f4  f4 05 c1 3c  LDR Q20, [X15],#16
0x004608f8  f5 05 c1 3c  LDR Q21, [X15],#16
0x004608fc  f6 05 c1 3c  LDR Q22, [X15],#16
0x00460900  f7 05 c1 3c  LDR Q23, [X15],#16
0x00460904  f8 05 c1 3c  LDR Q24, [X15],#16
0x00460908  f9 05 c1 3c  LDR Q25, [X15],#16
0x0046090c  fa 05 c1 3c  LDR Q26, [X15],#16
0x00460910  fb 05 c1 3c  LDR Q27, [X15],#16
0x00460914  fc 05 c1 3c  LDR Q28, [X15],#16
0x00460918  fd 05 c1 3c  LDR Q29, [X15],#16
0x0046091c  fe 05 c1 3c  LDR Q30, [X15],#16
0x00460920  ff 05 c1 3c  LDR Q31, [X15],#16
0x00460924  ef 03 1d aa  MOV X15, X29
0x00460928  fd 79 c1 a8  LDP X29, X30, [X15],#16
0x0046092c  c0 03 5f d6  RET X30
0x00460930  00 00 20 d4  BRK #0x0
0x00460934  00 00 20 d4  BRK #0x0
0x00460938  fd 79 bf a9  STP X29, X30, [X15,#-16]!
0x0046093c  fd 03 0f aa  MOV X29, X15
0x00460940  40 63 00 fd  STR D0, [X26,#192]
0x00460944  f6 8d 1f f8  STR X22, [X15,#-8]!
0x00460948  e0 8d 1f f8  STR X0, [X15,#-8]!
0x0046094c  45 a7 41 f9  LDR X5, [X26,#840]
0x00460950  24 00 80 d2  MOV X4, #0x1
0x00460954  5e 0b 41 f9  LDR X30, [X26,#528]
0x00460958  c0 03 3f d6  BLR X30
0x0046095c  ef 21 00 91  ADD X15, X15, #0x8
0x00460960  e0 85 40 f8  LDR X0, [X15],#8
0x00460964  ef 03 1d aa  MOV X15, X29
0x00460968  fd 79 c1 a8  LDP X29, X30, [X15],#16
0x0046096c  c0 03 5f d6  RET X30
0x00460970  fe 8d 1f f8  STR X30, [X15,#-8]!
0x00460974  f8 65 bf a9  STP X24, X25, [X15,#-16]!
0x00460978  f4 5d bf a9  STP X20, X23, [X15,#-16]!
0x0046097c  ee 4d bf a9  STP X14, X19, [X15,#-16]!
0x00460980  ec 35 bf a9  STP X12, X13, [X15,#-16]!
0x00460984  ea 2d bf a9  STP X10, X11, [X15,#-16]!
0x00460988  e8 25 bf a9  STP X8, X9, [X15,#-16]!
0x0046098c  e6 1d bf a9  STP X6, X7, [X15,#-16]!
0x00460990  e4 15 bf a9  STP X4, X5, [X15,#-16]!
0x00460994  e2 0d bf a9  STP X2, X3, [X15,#-16]!
0x00460998  e0 05 bf a9  STP X0, X1, [X15,#-16]!
0x0046099c  58 c7 40 f9  LDR X24, [X26,#392]
0x004609a0  fd 79 bf a9  STP X29, X30, [X15,#-16]!
0x004609a4  fd 03 0f aa  MOV X29, X15
0x004609a8  45 1b 42 f9  LDR X5, [X26,#1072]
0x004609ac  04 00 80 d2  MOV X4, #0x0
0x004609b0  5e 0b 41 f9  LDR X30, [X26,#528]
0x004609b4  c0 03 3f d6  BLR X30
0x004609b8  ef 03 1d aa  MOV X15, X29
0x004609bc  fd 79 c1 a8  LDP X29, X30, [X15],#16
0x004609c0  e0 05 c1 a8  LDP X0, X1, [X15],#16
0x004609c4  e2 0d c1 a8  LDP X2, X3, [X15],#16
0x004609c8  e4 15 c1 a8  LDP X4, X5, [X15],#16
0x004609cc  e6 1d c1 a8  LDP X6, X7, [X15],#16
0x004609d0  e8 25 c1 a8  LDP X8, X9, [X15],#16
0x004609d4  ea 2d c1 a8  LDP X10, X11, [X15],#16
0x004609d8  ec 35 c1 a8  LDP X12, X13, [X15],#16
0x004609dc  ee 4d c1 a8  LDP X14, X19, [X15],#16
0x004609e0  f4 5d c1 a8  LDP X20, X23, [X15],#16
0x004609e4  f8 65 c1 a8  LDP X24, X25, [X15],#16
0x004609e8  ef 21 00 91  ADD X15, X15, #0x8
0x004609ec  c0 03 5f d6  RET X30
0x004609f0  fe 8d 1f f8  STR X30, [X15,#-8]!
0x004609f4  ff 0d 9f 3c  STR Q31, [X15,#-16]!
0x004609f8  fe 0d 9f 3c  STR Q30, [X15,#-16]!
0x004609fc  fd 0d 9f 3c  STR Q29, [X15,#-16]!
0x00460a00  fc 0d 9f 3c  STR Q28, [X15,#-16]!
0x00460a04  fb 0d 9f 3c  STR Q27, [X15,#-16]!
0x00460a08  fa 0d 9f 3c  STR Q26, [X15,#-16]!
0x00460a0c  f9 0d 9f 3c  STR Q25, [X15,#-16]!
0x00460a10  f8 0d 9f 3c  STR Q24, [X15,#-16]!
0x00460a14  f7 0d 9f 3c  STR Q23, [X15,#-16]!
0x00460a18  f6 0d 9f 3c  STR Q22, [X15,#-16]!
0x00460a1c  f5 0d 9f 3c  STR Q21, [X15,#-16]!
0x00460a20  f4 0d 9f 3c  STR Q20, [X15,#-16]!
0x00460a24  f3 0d 9f 3c  STR Q19, [X15,#-16]!
0x00460a28  f2 0d 9f 3c  STR Q18, [X15,#-16]!
0x00460a2c  f1 0d 9f 3c  STR Q17, [X15,#-16]!
0x00460a30  f0 0d 9f 3c  STR Q16, [X15,#-16]!
0x00460a34  ef 0d 9f 3c  STR Q15, [X15,#-16]!
0x00460a38  ee 0d 9f 3c  STR Q14, [X15,#-16]!
0x00460a3c  ed 0d 9f 3c  STR Q13, [X15,#-16]!
0x00460a40  ec 0d 9f 3c  STR Q12, [X15,#-16]!
0x00460a44  eb 0d 9f 3c  STR Q11, [X15,#-16]!
0x00460a48  ea 0d 9f 3c  STR Q10, [X15,#-16]!
0x00460a4c  e9 0d 9f 3c  STR Q9, [X15,#-16]!
0x00460a50  e8 0d 9f 3c  STR Q8, [X15,#-16]!
0x00460a54  e7 0d 9f 3c  STR Q7, [X15,#-16]!
0x00460a58  e6 0d 9f 3c  STR Q6, [X15,#-16]!
0x00460a5c  e5 0d 9f 3c  STR Q5, [X15,#-16]!
0x00460a60  e4 0d 9f 3c  STR Q4, [X15,#-16]!
0x00460a64  e3 0d 9f 3c  STR Q3, [X15,#-16]!
0x00460a68  e2 0d 9f 3c  STR Q2, [X15,#-16]!
0x00460a6c  e1 0d 9f 3c  STR Q1, [X15,#-16]!
0x00460a70  e0 0d 9f 3c  STR Q0, [X15,#-16]!
0x00460a74  f8 65 bf a9  STP X24, X25, [X15,#-16]!
0x00460a78  f4 5d bf a9  STP X20, X23, [X15,#-16]!
0x00460a7c  ee 4d bf a9  STP X14, X19, [X15,#-16]!
0x00460a80  ec 35 bf a9  STP X12, X13, [X15,#-16]!
0x00460a84  ea 2d bf a9  STP X10, X11, [X15,#-16]!
0x00460a88  e8 25 bf a9  STP X8, X9, [X15,#-16]!
0x00460a8c  e6 1d bf a9  STP X6, X7, [X15,#-16]!
0x00460a90  e4 15 bf a9  STP X4, X5, [X15,#-16]!
0x00460a94  e2 0d bf a9  STP X2, X3, [X15,#-16]!
0x00460a98  e0 05 bf a9  STP X0, X1, [X15,#-16]!
0x00460a9c  58 cb 40 f9  LDR X24, [X26,#400]
0x00460aa0  fd 79 bf a9  STP X29, X30, [X15,#-16]!
0x00460aa4  fd 03 0f aa  MOV X29, X15
0x00460aa8  45 1b 42 f9  LDR X5, [X26,#1072]
0x00460aac  04 00 80 d2  MOV X4, #0x0
0x00460ab0  5e 0b 41 f9  LDR X30, [X26,#528]
0x00460ab4  c0 03 3f d6  BLR X30
0x00460ab8  ef 03 1d aa  MOV X15, X29
0x00460abc  fd 79 c1 a8  LDP X29, X30, [X15],#16
0x00460ac0  e0 05 c1 a8  LDP X0, X1, [X15],#16
0x00460ac4  e2 0d c1 a8  LDP X2, X3, [X15],#16
0x00460ac8  e4 15 c1 a8  LDP X4, X5, [X15],#16
0x00460acc  e6 1d c1 a8  LDP X6, X7, [X15],#16
0x00460ad0  e8 25 c1 a8  LDP X8, X9, [X15],#16
0x00460ad4  ea 2d c1 a8  LDP X10, X11, [X15],#16
0x00460ad8  ec 35 c1 a8  LDP X12, X13, [X15],#16
0x00460adc  ee 4d c1 a8  LDP X14, X19, [X15],#16
0x00460ae0  f4 5d c1 a8  LDP X20, X23, [X15],#16
0x00460ae4  f8 65 c1 a8  LDP X24, X25, [X15],#16
0x00460ae8  e0 05 c1 3c  LDR Q0, [X15],#16
0x00460aec  e1 05 c1 3c  LDR Q1, [X15],#16
0x00460af0  e2 05 c1 3c  LDR Q2, [X15],#16
0x00460af4  e3 05 c1 3c  LDR Q3, [X15],#16
0x00460af8  e4 05 c1 3c  LDR Q4, [X15],#16
0x00460afc  e5 05 c1 3c  LDR Q5, [X15],#16
0x00460b00  e6 05 c1 3c  LDR Q6, [X15],#16
0x00460b04  e7 05 c1 3c  LDR Q7, [X15],#16
0x00460b08  e8 05 c1 3c  LDR Q8, [X15],#16
0x00460b0c  e9 05 c1 3c  LDR Q9, [X15],#16
0x00460b10  ea 05 c1 3c  LDR Q10, [X15],#16
0x00460b14  eb 05 c1 3c  LDR Q11, [X15],#16
0x00460b18  ec 05 c1 3c  LDR Q12, [X15],#16
0x00460b1c  ed 05 c1 3c  LDR Q13, [X15],#16
0x00460b20  ee 05 c1 3c  LDR Q14, [X15],#16
0x00460b24  ef 05 c1 3c  LDR Q15, [X15],#16
0x00460b28  f0 05 c1 3c  LDR Q16, [X15],#16
0x00460b2c  f1 05 c1 3c  LDR Q17, [X15],#16
0x00460b30  f2 05 c1 3c  LDR Q18, [X15],#16
0x00460b34  f3 05 c1 3c  LDR Q19, [X15],#16
0x00460b38  f4 05 c1 3c  LDR Q20, [X15],#16
0x00460b3c  f5 05 c1 3c  LDR Q21, [X15],#16
0x00460b40  f6 05 c1 3c  LDR Q22, [X15],#16
0x00460b44  f7 05 c1 3c  LDR Q23, [X15],#16
0x00460b48  f8 05 c1 3c  LDR Q24, [X15],#16
0x00460b4c  f9 05 c1 3c  LDR Q25, [X15],#16
0x00460b50  fa 05 c1 3c  LDR Q26, [X15],#16
0x00460b54  fb 05 c1 3c  LDR Q27, [X15],#16
0x00460b58  fc 05 c1 3c  LDR Q28, [X15],#16
0x00460b5c  fd 05 c1 3c  LDR Q29, [X15],#16
0x00460b60  fe 05 c1 3c  LDR Q30, [X15],#16
0x00460b64  ff 05 c1 3c  LDR Q31, [X15],#16
0x00460b68  ef 21 00 91  ADD X15, X15, #0x8
0x00460b6c  c0 03 5f d6  RET X30
0x00460b70  fe 8d 1f f8  STR X30, [X15,#-8]!
0x00460b74  f8 65 bf a9  STP X24, X25, [X15,#-16]!
0x00460b78  f4 5d bf a9  STP X20, X23, [X15,#-16]!
0x00460b7c  ee 4d bf a9  STP X14, X19, [X15,#-16]!
0x00460b80  ec 35 bf a9  STP X12, X13, [X15,#-16]!
0x00460b84  ea 2d bf a9  STP X10, X11, [X15,#-16]!
0x00460b88  e8 25 bf a9  STP X8, X9, [X15,#-16]!
0x00460b8c  e6 1d bf a9  STP X6, X7, [X15,#-16]!
0x00460b90  e4 15 bf a9  STP X4, X5, [X15,#-16]!
0x00460b94  e2 0d bf a9  STP X2, X3, [X15,#-16]!
0x00460b98  e0 05 bf a9  STP X0, X1, [X15,#-16]!
0x00460b9c  58 ab 40 f9  LDR X24, [X26,#336]
0x00460ba0  fd 79 bf a9  STP X29, X30, [X15,#-16]!
0x00460ba4  fd 03 0f aa  MOV X29, X15
0x00460ba8  f0 03 01 aa  MOV X16, X1
0x00460bac  21 f8 7f d3  LSL X1, X1, #1
0x00460bb0  21 7c 40 93  SXTW X1, W1
0x00460bb4  1f 06 81 eb  CMP X16, X1, ASR #1
0x00460bb8  40 01 00 54  B EQ, .+0x28
0x00460bbc  f6 8d 1f f8  STR X22, [X15,#-8]!
0x00460bc0  45 73 41 f9  LDR X5, [X26,#736]
0x00460bc4  04 00 80 d2  MOV X4, #0x0
0x00460bc8  5e 0b 41 f9  LDR X30, [X26,#528]
0x00460bcc  c0 03 3f d6  BLR X30
0x00460bd0  e1 85 40 f8  LDR X1, [X15],#8
0x00460bd4  b0 0f 40 f9  LDR X16, [X29,#24]
0x00460bd8  30 70 00 f8  STUR X16, [X1,#7]
0x00460bdc  a0 0b 40 f9  LDR X0, [X29,#16]
0x00460be0  00 f8 7f d3  LSL X0, X0, #1
0x00460be4  e0 8d 1f f8  STR X0, [X15,#-8]!
0x00460be8  e1 8d 1f f8  STR X1, [X15,#-8]!
0x00460bec  45 f3 41 f9  LDR X5, [X26,#992]
0x00460bf0  44 00 80 d2  MOV X4, #0x2
0x00460bf4  5e 0b 41 f9  LDR X30, [X26,#528]
0x00460bf8  c0 03 3f d6  BLR X30
0x00460bfc  00 00 20 d4  BRK #0x0
0x00460c00  00 00 20 d4  BRK #0x0
0x00460c04  fe 8d 1f f8  STR X30, [X15,#-8]!
0x00460c08  ff 0d 9f 3c  STR Q31, [X15,#-16]!
0x00460c0c  fe 0d 9f 3c  STR Q30, [X15,#-16]!
0x00460c10  fd 0d 9f 3c  STR Q29, [X15,#-16]!
0x00460c14  fc 0d 9f 3c  STR Q28, [X15,#-16]!
0x00460c18  fb 0d 9f 3c  STR Q27, [X15,#-16]!
0x00460c1c  fa 0d 9f 3c  STR Q26, [X15,#-16]!
0x00460c20  f9 0d 9f 3c  STR Q25, [X15,#-16]!
0x00460c24  f8 0d 9f 3c  STR Q24, [X15,#-16]!
0x00460c28  f7 0d 9f 3c  STR Q23, [X15,#-16]!
0x00460c2c  f6 0d 9f 3c  STR Q22, [X15,#-16]!
0x00460c30  f5 0d 9f 3c  STR Q21, [X15,#-16]!
0x00460c34  f4 0d 9f 3c  STR Q20, [X15,#-16]!
0x00460c38  f3 0d 9f 3c  STR Q19, [X15,#-16]!
0x00460c3c  f2 0d 9f 3c  STR Q18, [X15,#-16]!
0x00460c40  f1 0d 9f 3c  STR Q17, [X15,#-16]!
0x00460c44  f0 0d 9f 3c  STR Q16, [X15,#-16]!
0x00460c48  ef 0d 9f 3c  STR Q15, [X15,#-16]!
0x00460c4c  ee 0d 9f 3c  STR Q14, [X15,#-16]!
0x00460c50  ed 0d 9f 3c  STR Q13, [X15,#-16]!
0x00460c54  ec 0d 9f 3c  STR Q12, [X15,#-16]!
0x00460c58  eb 0d 9f 3c  STR Q11, [X15,#-16]!
0x00460c5c  ea 0d 9f 3c  STR Q10, [X15,#-16]!
0x00460c60  e9 0d 9f 3c  STR Q9, [X15,#-16]!
0x00460c64  e8 0d 9f 3c  STR Q8, [X15,#-16]!
0x00460c68  e7 0d 9f 3c  STR Q7, [X15,#-16]!
0x00460c6c  e6 0d 9f 3c  STR Q6, [X15,#-16]!
0x00460c70  e5 0d 9f 3c  STR Q5, [X15,#-16]!
0x00460c74  e4 0d 9f 3c  STR Q4, [X15,#-16]!
0x00460c78  e3 0d 9f 3c  STR Q3, [X15,#-16]!
0x00460c7c  e2 0d 9f 3c  STR Q2, [X15,#-16]!
0x00460c80  e1 0d 9f 3c  STR Q1, [X15,#-16]!
0x00460c84  e0 0d 9f 3c  STR Q0, [X15,#-16]!
0x00460c88  f8 65 bf a9  STP X24, X25, [X15,#-16]!
0x00460c8c  f4 5d bf a9  STP X20, X23, [X15,#-16]!
0x00460c90  ee 4d bf a9  STP X14, X19, [X15,#-16]!
0x00460c94  ec 35 bf a9  STP X12, X13, [X15,#-16]!
0x00460c98  ea 2d bf a9  STP X10, X11, [X15,#-16]!
0x00460c9c  e8 25 bf a9  STP X8, X9, [X15,#-16]!
0x00460ca0  e6 1d bf a9  STP X6, X7, [X15,#-16]!
0x00460ca4  e4 15 bf a9  STP X4, X5, [X15,#-16]!
0x00460ca8  e2 0d bf a9  STP X2, X3, [X15,#-16]!
0x00460cac  e0 05 bf a9  STP X0, X1, [X15,#-16]!
0x00460cb0  58 af 40 f9  LDR X24, [X26,#344]
0x00460cb4  fd 79 bf a9  STP X29, X30, [X15,#-16]!
0x00460cb8  fd 03 0f aa  MOV X29, X15
0x00460cbc  f0 03 01 aa  MOV X16, X1
0x00460cc0  21 f8 7f d3  LSL X1, X1, #1
0x00460cc4  21 7c 40 93  SXTW X1, W1
0x00460cc8  1f 06 81 eb  CMP X16, X1, ASR #1
0x00460ccc  40 01 00 54  B EQ, .+0x28
0x00460cd0  f6 8d 1f f8  STR X22, [X15,#-8]!
0x00460cd4  45 73 41 f9  LDR X5, [X26,#736]
0x00460cd8  04 00 80 d2  MOV X4, #0x0
0x00460cdc  5e 0b 41 f9  LDR X30, [X26,#528]
0x00460ce0  c0 03 3f d6  BLR X30
0x00460ce4  e1 85 40 f8  LDR X1, [X15],#8
0x00460ce8  b0 0f 40 f9  LDR X16, [X29,#24]
0x00460cec  30 70 00 f8  STUR X16, [X1,#7]
0x00460cf0  a0 0b 40 f9  LDR X0, [X29,#16]
0x00460cf4  00 f8 7f d3  LSL X0, X0, #1
0x00460cf8  e0 8d 1f f8  STR X0, [X15,#-8]!
0x00460cfc  e1 8d 1f f8  STR X1, [X15,#-8]!
0x00460d00  45 f3 41 f9  LDR X5, [X26,#992]
0x00460d04  44 00 80 d2  MOV X4, #0x2
0x00460d08  5e 0b 41 f9  LDR X30, [X26,#528]
0x00460d0c  c0 03 3f d6  BLR X30
0x00460d10  00 00 20 d4  BRK #0x0
0x00460d14  00 00 20 d4  BRK #0x0
0x00460d18  fe 8d 1f f8  STR X30, [X15,#-8]!
0x00460d1c  f8 65 bf a9  STP X24, X25, [X15,#-16]!
0x00460d20  f4 5d bf a9  STP X20, X23, [X15,#-16]!
0x00460d24  ee 4d bf a9  STP X14, X19, [X15,#-16]!
0x00460d28  ec 35 bf a9  STP X12, X13, [X15,#-16]!
0x00460d2c  ea 2d bf a9  STP X10, X11, [X15,#-16]!
0x00460d30  e8 25 bf a9  STP X8, X9, [X15,#-16]!
0x00460d34  e6 1d bf a9  STP X6, X7, [X15,#-16]!
0x00460d38  e4 15 bf a9  STP X4, X5, [X15,#-16]!
0x00460d3c  e2 0d bf a9  STP X2, X3, [X15,#-16]!
0x00460d40  e0 05 bf a9  STP X0, X1, [X15,#-16]!
0x00460d44  58 a3 40 f9  LDR X24, [X26,#320]
0x00460d48  fd 79 bf a9  STP X29, X30, [X15,#-16]!
0x00460d4c  fd 03 0f aa  MOV X29, X15
0x00460d50  45 ff 41 f9  LDR X5, [X26,#1016]
0x00460d54  04 00 80 d2  MOV X4, #0x0
0x00460d58  5e 0b 41 f9  LDR X30, [X26,#528]
0x00460d5c  c0 03 3f d6  BLR X30
0x00460d60  00 00 20 d4  BRK #0x0
0x00460d64  fe 8d 1f f8  STR X30, [X15,#-8]!
0x00460d68  ff 0d 9f 3c  STR Q31, [X15,#-16]!
0x00460d6c  fe 0d 9f 3c  STR Q30, [X15,#-16]!
0x00460d70  fd 0d 9f 3c  STR Q29, [X15,#-16]!
0x00460d74  fc 0d 9f 3c  STR Q28, [X15,#-16]!
0x00460d78  fb 0d 9f 3c  STR Q27, [X15,#-16]!
0x00460d7c  fa 0d 9f 3c  STR Q26, [X15,#-16]!
0x00460d80  f9 0d 9f 3c  STR Q25, [X15,#-16]!
0x00460d84  f8 0d 9f 3c  STR Q24, [X15,#-16]!
0x00460d88  f7 0d 9f 3c  STR Q23, [X15,#-16]!
0x00460d8c  f6 0d 9f 3c  STR Q22, [X15,#-16]!
0x00460d90  f5 0d 9f 3c  STR Q21, [X15,#-16]!
0x00460d94  f4 0d 9f 3c  STR Q20, [X15,#-16]!
0x00460d98  f3 0d 9f 3c  STR Q19, [X15,#-16]!
0x00460d9c  f2 0d 9f 3c  STR Q18, [X15,#-16]!
0x00460da0  f1 0d 9f 3c  STR Q17, [X15,#-16]!
0x00460da4  f0 0d 9f 3c  STR Q16, [X15,#-16]!
0x00460da8  ef 0d 9f 3c  STR Q15, [X15,#-16]!
0x00460dac  ee 0d 9f 3c  STR Q14, [X15,#-16]!
0x00460db0  ed 0d 9f 3c  STR Q13, [X15,#-16]!
0x00460db4  ec 0d 9f 3c  STR Q12, [X15,#-16]!
0x00460db8  eb 0d 9f 3c  STR Q11, [X15,#-16]!
0x00460dbc  ea 0d 9f 3c  STR Q10, [X15,#-16]!
0x00460dc0  e9 0d 9f 3c  STR Q9, [X15,#-16]!
0x00460dc4  e8 0d 9f 3c  STR Q8, [X15,#-16]!
0x00460dc8  e7 0d 9f 3c  STR Q7, [X15,#-16]!
0x00460dcc  e6 0d 9f 3c  STR Q6, [X15,#-16]!
0x00460dd0  e5 0d 9f 3c  STR Q5, [X15,#-16]!
0x00460dd4  e4 0d 9f 3c  STR Q4, [X15,#-16]!
0x00460dd8  e3 0d 9f 3c  STR Q3, [X15,#-16]!
0x00460ddc  e2 0d 9f 3c  STR Q2, [X15,#-16]!
0x00460de0  e1 0d 9f 3c  STR Q1, [X15,#-16]!
0x00460de4  e0 0d 9f 3c  STR Q0, [X15,#-16]!
0x00460de8  f8 65 bf a9  STP X24, X25, [X15,#-16]!
0x00460dec  f4 5d bf a9  STP X20, X23, [X15,#-16]!
0x00460df0  ee 4d bf a9  STP X14, X19, [X15,#-16]!
0x00460df4  ec 35 bf a9  STP X12, X13, [X15,#-16]!
0x00460df8  ea 2d bf a9  STP X10, X11, [X15,#-16]!
0x00460dfc  e8 25 bf a9  STP X8, X9, [X15,#-16]!
0x00460e00  e6 1d bf a9  STP X6, X7, [X15,#-16]!
0x00460e04  e4 15 bf a9  STP X4, X5, [X15,#-16]!
0x00460e08  e2 0d bf a9  STP X2, X3, [X15,#-16]!
0x00460e0c  e0 05 bf a9  STP X0, X1, [X15,#-16]!
0x00460e10  58 a7 40 f9  LDR X24, [X26,#328]
0x00460e14  fd 79 bf a9  STP X29, X30, [X15,#-16]!
0x00460e18  fd 03 0f aa  MOV X29, X15
0x00460e1c  45 ff 41 f9  LDR X5, [X26,#1016]
0x00460e20  04 00 80 d2  MOV X4, #0x0
0x00460e24  5e 0b 41 f9  LDR X30, [X26,#528]
0x00460e28  c0 03 3f d6  BLR X30
0x00460e2c  00 00 20 d4  BRK #0x0
0x00460e30  fe 8d 1f f8  STR X30, [X15,#-8]!
0x00460e34  f8 65 bf a9  STP X24, X25, [X15,#-16]!
0x00460e38  f4 5d bf a9  STP X20, X23, [X15,#-16]!
0x00460e3c  ee 4d bf a9  STP X14, X19, [X15,#-16]!
0x00460e40  ec 35 bf a9  STP X12, X13, [X15,#-16]!
0x00460e44  ea 2d bf a9  STP X10, X11, [X15,#-16]!
0x00460e48  e8 25 bf a9  STP X8, X9, [X15,#-16]!
0x00460e4c  e6 1d bf a9  STP X6, X7, [X15,#-16]!
0x00460e50  e4 15 bf a9  STP X4, X5, [X15,#-16]!
0x00460e54  e2 0d bf a9  STP X2, X3, [X15,#-16]!
0x00460e58  e0 05 bf a9  STP X0, X1, [X15,#-16]!
0x00460e5c  58 9b 40 f9  LDR X24, [X26,#304]
0x00460e60  fd 79 bf a9  STP X29, X30, [X15,#-16]!
0x00460e64  fd 03 0f aa  MOV X29, X15
0x00460e68  45 03 42 f9  LDR X5, [X26,#1024]
0x00460e6c  04 00 80 d2  MOV X4, #0x0
0x00460e70  5e 0b 41 f9  LDR X30, [X26,#528]
0x00460e74  c0 03 3f d6  BLR X30
0x00460e78  00 00 20 d4  BRK #0x0
0x00460e7c  fe 8d 1f f8  STR X30, [X15,#-8]!
0x00460e80  ff 0d 9f 3c  STR Q31, [X15,#-16]!
0x00460e84  fe 0d 9f 3c  STR Q30, [X15,#-16]!
0x00460e88  fd 0d 9f 3c  STR Q29, [X15,#-16]!
0x00460e8c  fc 0d 9f 3c  STR Q28, [X15,#-16]!
0x00460e90  fb 0d 9f 3c  STR Q27, [X15,#-16]!
0x00460e94  fa 0d 9f 3c  STR Q26, [X15,#-16]!
0x00460e98  f9 0d 9f 3c  STR Q25, [X15,#-16]!
0x00460e9c  f8 0d 9f 3c  STR Q24, [X15,#-16]!
0x00460ea0  f7 0d 9f 3c  STR Q23, [X15,#-16]!
0x00460ea4  f6 0d 9f 3c  STR Q22, [X15,#-16]!
0x00460ea8  f5 0d 9f 3c  STR Q21, [X15,#-16]!
0x00460eac  f4 0d 9f 3c  STR Q20, [X15,#-16]!
0x00460eb0  f3 0d 9f 3c  STR Q19, [X15,#-16]!
0x00460eb4  f2 0d 9f 3c  STR Q18, [X15,#-16]!
0x00460eb8  f1 0d 9f 3c  STR Q17, [X15,#-16]!
0x00460ebc  f0 0d 9f 3c  STR Q16, [X15,#-16]!
0x00460ec0  ef 0d 9f 3c  STR Q15, [X15,#-16]!
0x00460ec4  ee 0d 9f 3c  STR Q14, [X15,#-16]!
0x00460ec8  ed 0d 9f 3c  STR Q13, [X15,#-16]!
0x00460ecc  ec 0d 9f 3c  STR Q12, [X15,#-16]!
0x00460ed0  eb 0d 9f 3c  STR Q11, [X15,#-16]!
0x00460ed4  ea 0d 9f 3c  STR Q10, [X15,#-16]!
0x00460ed8  e9 0d 9f 3c  STR Q9, [X15,#-16]!
0x00460edc  e8 0d 9f 3c  STR Q8, [X15,#-16]!
0x00460ee0  e7 0d 9f 3c  STR Q7, [X15,#-16]!
0x00460ee4  e6 0d 9f 3c  STR Q6, [X15,#-16]!
0x00460ee8  e5 0d 9f 3c  STR Q5, [X15,#-16]!
0x00460eec  e4 0d 9f 3c  STR Q4, [X15,#-16]!
0x00460ef0  e3 0d 9f 3c  STR Q3, [X15,#-16]!
0x00460ef4  e2 0d 9f 3c  STR Q2, [X15,#-16]!
0x00460ef8  e1 0d 9f 3c  STR Q1, [X15,#-16]!
0x00460efc  e0 0d 9f 3c  STR Q0, [X15,#-16]!
0x00460f00  f8 65 bf a9  STP X24, X25, [X15,#-16]!
0x00460f04  f4 5d bf a9  STP X20, X23, [X15,#-16]!
0x00460f08  ee 4d bf a9  STP X14, X19, [X15,#-16]!
0x00460f0c  ec 35 bf a9  STP X12, X13, [X15,#-16]!
0x00460f10  ea 2d bf a9  STP X10, X11, [X15,#-16]!
0x00460f14  e8 25 bf a9  STP X8, X9, [X15,#-16]!
0x00460f18  e6 1d bf a9  STP X6, X7, [X15,#-16]!
0x00460f1c  e4 15 bf a9  STP X4, X5, [X15,#-16]!
0x00460f20  e2 0d bf a9  STP X2, X3, [X15,#-16]!
0x00460f24  e0 05 bf a9  STP X0, X1, [X15,#-16]!
0x00460f28  58 9f 40 f9  LDR X24, [X26,#312]
0x00460f2c  fd 79 bf a9  STP X29, X30, [X15,#-16]!
0x00460f30  fd 03 0f aa  MOV X29, X15
0x00460f34  45 03 42 f9  LDR X5, [X26,#1024]
0x00460f38  04 00 80 d2  MOV X4, #0x0
0x00460f3c  5e 0b 41 f9  LDR X30, [X26,#528]
0x00460f40  c0 03 3f d6  BLR X30
0x00460f44  00 00 20 d4  BRK #0x0
0x00460f48  fe 8d 1f f8  STR X30, [X15,#-8]!
0x00460f4c  f8 65 bf a9  STP X24, X25, [X15,#-16]!
0x00460f50  f4 5d bf a9  STP X20, X23, [X15,#-16]!
0x00460f54  ee 4d bf a9  STP X14, X19, [X15,#-16]!
0x00460f58  ec 35 bf a9  STP X12, X13, [X15,#-16]!
0x00460f5c  ea 2d bf a9  STP X10, X11, [X15,#-16]!
0x00460f60  e8 25 bf a9  STP X8, X9, [X15,#-16]!
0x00460f64  e6 1d bf a9  STP X6, X7, [X15,#-16]!
0x00460f68  e4 15 bf a9  STP X4, X5, [X15,#-16]!
0x00460f6c  e2 0d bf a9  STP X2, X3, [X15,#-16]!
0x00460f70  e0 05 bf a9  STP X0, X1, [X15,#-16]!
0x00460f74  58 93 40 f9  LDR X24, [X26,#288]
0x00460f78  fd 79 bf a9  STP X29, X30, [X15,#-16]!
0x00460f7c  fd 03 0f aa  MOV X29, X15
0x00460f80  45 f7 41 f9  LDR X5, [X26,#1000]
0x00460f84  04 00 80 d2  MOV X4, #0x0
0x00460f88  5e 0b 41 f9  LDR X30, [X26,#528]
0x00460f8c  c0 03 3f d6  BLR X30
0x00460f90  00 00 20 d4  BRK #0x0
0x00460f94  fe 8d 1f f8  STR X30, [X15,#-8]!
0x00460f98  ff 0d 9f 3c  STR Q31, [X15,#-16]!
0x00460f9c  fe 0d 9f 3c  STR Q30, [X15,#-16]!
0x00460fa0  fd 0d 9f 3c  STR Q29, [X15,#-16]!
0x00460fa4  fc 0d 9f 3c  STR Q28, [X15,#-16]!
0x00460fa8  fb 0d 9f 3c  STR Q27, [X15,#-16]!
0x00460fac  fa 0d 9f 3c  STR Q26, [X15,#-16]!
0x00460fb0  f9 0d 9f 3c  STR Q25, [X15,#-16]!
0x00460fb4  f8 0d 9f 3c  STR Q24, [X15,#-16]!
0x00460fb8  f7 0d 9f 3c  STR Q23, [X15,#-16]!
0x00460fbc  f6 0d 9f 3c  STR Q22, [X15,#-16]!
0x00460fc0  f5 0d 9f 3c  STR Q21, [X15,#-16]!
0x00460fc4  f4 0d 9f 3c  STR Q20, [X15,#-16]!
0x00460fc8  f3 0d 9f 3c  STR Q19, [X15,#-16]!
0x00460fcc  f2 0d 9f 3c  STR Q18, [X15,#-16]!
0x00460fd0  f1 0d 9f 3c  STR Q17, [X15,#-16]!
0x00460fd4  f0 0d 9f 3c  STR Q16, [X15,#-16]!
0x00460fd8  ef 0d 9f 3c  STR Q15, [X15,#-16]!
0x00460fdc  ee 0d 9f 3c  STR Q14, [X15,#-16]!
0x00460fe0  ed 0d 9f 3c  STR Q13, [X15,#-16]!
0x00460fe4  ec 0d 9f 3c  STR Q12, [X15,#-16]!
0x00460fe8  eb 0d 9f 3c  STR Q11, [X15,#-16]!
0x00460fec  ea 0d 9f 3c  STR Q10, [X15,#-16]!
0x00460ff0  e9 0d 9f 3c  STR Q9, [X15,#-16]!
0x00460ff4  e8 0d 9f 3c  STR Q8, [X15,#-16]!
0x00460ff8  e7 0d 9f 3c  STR Q7, [X15,#-16]!
0x00460ffc  e6 0d 9f 3c  STR Q6, [X15,#-16]!
0x00461000  e5 0d 9f 3c  STR Q5, [X15,#-16]!
0x00461004  e4 0d 9f 3c  STR Q4, [X15,#-16]!
0x00461008  e3 0d 9f 3c  STR Q3, [X15,#-16]!
0x0046100c  e2 0d 9f 3c  STR Q2, [X15,#-16]!
0x00461010  e1 0d 9f 3c  STR Q1, [X15,#-16]!
0x00461014  e0 0d 9f 3c  STR Q0, [X15,#-16]!
0x00461018  f8 65 bf a9  STP X24, X25, [X15,#-16]!
0x0046101c  f4 5d bf a9  STP X20, X23, [X15,#-16]!
0x00461020  ee 4d bf a9  STP X14, X19, [X15,#-16]!
0x00461024  ec 35 bf a9  STP X12, X13, [X15,#-16]!
0x00461028  ea 2d bf a9  STP X10, X11, [X15,#-16]!
0x0046102c  e8 25 bf a9  STP X8, X9, [X15,#-16]!
0x00461030  e6 1d bf a9  STP X6, X7, [X15,#-16]!
0x00461034  e4 15 bf a9  STP X4, X5, [X15,#-16]!
0x00461038  e2 0d bf a9  STP X2, X3, [X15,#-16]!
0x0046103c  e0 05 bf a9  STP X0, X1, [X15,#-16]!
0x00461040  58 97 40 f9  LDR X24, [X26,#296]
0x00461044  fd 79 bf a9  STP X29, X30, [X15,#-16]!
0x00461048  fd 03 0f aa  MOV X29, X15
0x0046104c  45 f7 41 f9  LDR X5, [X26,#1000]
0x00461050  04 00 80 d2  MOV X4, #0x0
0x00461054  5e 0b 41 f9  LDR X30, [X26,#528]
0x00461058  c0 03 3f d6  BLR X30
0x0046105c  00 00 20 d4  BRK #0x0
0x00461060  fe 8d 1f f8  STR X30, [X15,#-8]!
0x00461064  f8 65 bf a9  STP X24, X25, [X15,#-16]!
0x00461068  f4 5d bf a9  STP X20, X23, [X15,#-16]!
0x0046106c  ee 4d bf a9  STP X14, X19, [X15,#-16]!
0x00461070  ec 35 bf a9  STP X12, X13, [X15,#-16]!
0x00461074  ea 2d bf a9  STP X10, X11, [X15,#-16]!
0x00461078  e8 25 bf a9  STP X8, X9, [X15,#-16]!
0x0046107c  e6 1d bf a9  STP X6, X7, [X15,#-16]!
0x00461080  e4 15 bf a9  STP X4, X5, [X15,#-16]!
0x00461084  e2 0d bf a9  STP X2, X3, [X15,#-16]!
0x00461088  e0 05 bf a9  STP X0, X1, [X15,#-16]!
0x0046108c  58 8b 40 f9  LDR X24, [X26,#272]
0x00461090  fd 79 bf a9  STP X29, X30, [X15,#-16]!
0x00461094  fd 03 0f aa  MOV X29, X15
0x00461098  e9 8d 1f f8  STR X9, [X15,#-8]!
0x0046109c  45 3b 42 f9  LDR X5, [X26,#1136]
0x004610a0  24 00 80 d2  MOV X4, #0x1
0x004610a4  5e 0b 41 f9  LDR X30, [X26,#528]
0x004610a8  c0 03 3f d6  BLR X30
0x004610ac  00 00 20 d4  BRK #0x0
0x004610b0  fe 8d 1f f8  STR X30, [X15,#-8]!
0x004610b4  ff 0d 9f 3c  STR Q31, [X15,#-16]!
0x004610b8  fe 0d 9f 3c  STR Q30, [X15,#-16]!
0x004610bc  fd 0d 9f 3c  STR Q29, [X15,#-16]!
0x004610c0  fc 0d 9f 3c  STR Q28, [X15,#-16]!
0x004610c4  fb 0d 9f 3c  STR Q27, [X15,#-16]!
0x004610c8  fa 0d 9f 3c  STR Q26, [X15,#-16]!
0x004610cc  f9 0d 9f 3c  STR Q25, [X15,#-16]!
0x004610d0  f8 0d 9f 3c  STR Q24, [X15,#-16]!
0x004610d4  f7 0d 9f 3c  STR Q23, [X15,#-16]!
0x004610d8  f6 0d 9f 3c  STR Q22, [X15,#-16]!
0x004610dc  f5 0d 9f 3c  STR Q21, [X15,#-16]!
0x004610e0  f4 0d 9f 3c  STR Q20, [X15,#-16]!
0x004610e4  f3 0d 9f 3c  STR Q19, [X15,#-16]!
0x004610e8  f2 0d 9f 3c  STR Q18, [X15,#-16]!
0x004610ec  f1 0d 9f 3c  STR Q17, [X15,#-16]!
0x004610f0  f0 0d 9f 3c  STR Q16, [X15,#-16]!
0x004610f4  ef 0d 9f 3c  STR Q15, [X15,#-16]!
0x004610f8  ee 0d 9f 3c  STR Q14, [X15,#-16]!
0x004610fc  ed 0d 9f 3c  STR Q13, [X15,#-16]!
0x00461100  ec 0d 9f 3c  STR Q12, [X15,#-16]!
0x00461104  eb 0d 9f 3c  STR Q11, [X15,#-16]!
0x00461108  ea 0d 9f 3c  STR Q10, [X15,#-16]!
0x0046110c  e9 0d 9f 3c  STR Q9, [X15,#-16]!
0x00461110  e8 0d 9f 3c  STR Q8, [X15,#-16]!
0x00461114  e7 0d 9f 3c  STR Q7, [X15,#-16]!
0x00461118  e6 0d 9f 3c  STR Q6, [X15,#-16]!
0x0046111c  e5 0d 9f 3c  STR Q5, [X15,#-16]!
0x00461120  e4 0d 9f 3c  STR Q4, [X15,#-16]!
0x00461124  e3 0d 9f 3c  STR Q3, [X15,#-16]!
0x00461128  e2 0d 9f 3c  STR Q2, [X15,#-16]!
0x0046112c  e1 0d 9f 3c  STR Q1, [X15,#-16]!
0x00461130  e0 0d 9f 3c  STR Q0, [X15,#-16]!
0x00461134  f8 65 bf a9  STP X24, X25, [X15,#-16]!
0x00461138  f4 5d bf a9  STP X20, X23, [X15,#-16]!
0x0046113c  ee 4d bf a9  STP X14, X19, [X15,#-16]!
0x00461140  ec 35 bf a9  STP X12, X13, [X15,#-16]!
0x00461144  ea 2d bf a9  STP X10, X11, [X15,#-16]!
0x00461148  e8 25 bf a9  STP X8, X9, [X15,#-16]!
0x0046114c  e6 1d bf a9  STP X6, X7, [X15,#-16]!
0x00461150  e4 15 bf a9  STP X4, X5, [X15,#-16]!
0x00461154  e2 0d bf a9  STP X2, X3, [X15,#-16]!
0x00461158  e0 05 bf a9  STP X0, X1, [X15,#-16]!
0x0046115c  58 8f 40 f9  LDR X24, [X26,#280]
0x00461160  fd 79 bf a9  STP X29, X30, [X15,#-16]!
0x00461164  fd 03 0f aa  MOV X29, X15
0x00461168  e9 8d 1f f8  STR X9, [X15,#-8]!
0x0046116c  45 3b 42 f9  LDR X5, [X26,#1136]
0x00461170  24 00 80 d2  MOV X4, #0x1
0x00461174  5e 0b 41 f9  LDR X30, [X26,#528]
0x00461178  c0 03 3f d6  BLR X30
0x0046117c  00 00 20 d4  BRK #0x0
0x00461180  fd 79 bf a9  STP X29, X30, [X15,#-16]!
0x00461184  fd 03 0f aa  MOV X29, X15
0x00461188  00 f8 7f d3  LSL X0, X0, #1
0x0046118c  e0 8d 1f f8  STR X0, [X15,#-8]!
0x00461190  45 07 42 f9  LDR X5, [X26,#1032]
0x00461194  24 00 80 d2  MOV X4, #0x1
0x00461198  5e 0b 41 f9  LDR X30, [X26,#528]
0x0046119c  c0 03 3f d6  BLR X30
0x004611a0  00 00 20 d4  BRK #0x0
0x004611a4  fd 79 bf a9  STP X29, X30, [X15,#-16]!
0x004611a8  fd 03 0f aa  MOV X29, X15
0x004611ac  45 47 42 f9  LDR X5, [X26,#1160]
0x004611b0  04 00 80 d2  MOV X4, #0x0
0x004611b4  5e 0b 41 f9  LDR X30, [X26,#528]
0x004611b8  c0 03 3f d6  BLR X30
0x004611bc  00 00 20 d4  BRK #0x0
0x004611c0  00 00 20 d4  BRK #0x0
0x004611c4  00 00 20 d4  BRK #0x0
0x004611c8  fd 79 bf a9  STP X29, X30, [X15,#-16]!
0x004611cc  fd 03 0f aa  MOV X29, X15
0x004611d0  82 70 41 b8  LDUR W2, [X4,#23]
0x004611d4  b0 0b 02 8b  ADD X16, X29, X2, LSL #2
0x004611d8  06 06 40 f9  LDR X6, [X16,#8]
0x004611dc  d0 30 41 b8  LDUR W16, [X6,#19]
0x004611e0  10 82 1c 8b  ADD X16, X16, X28, LSL #32
0x004611e4  ff 8d 1f f8  STR XZR, [X15,#-8]!
0x004611e8  e6 8d 1f f8  STR X6, [X15,#-8]!
0x004611ec  f0 8d 1f f8  STR X16, [X15,#-8]!
0x004611f0  e4 8d 1f f8  STR X4, [X15,#-8]!
0x004611f4  83 f0 40 b8  LDUR W3, [X4,#15]
0x004611f8  50 04 00 11  ADD W16, W2, #0x1
0x004611fc  7f 00 00 71  CMP W3, #0x0
0x00461200  42 04 90 1a  CSINC W2, W2, W16, EQ
0x00461204  e1 03 16 aa  MOV X1, X22
0x00461208  78 13 40 f9  LDR X24, [X27,#32]
0x0046120c  1e 73 40 f8  LDUR X30, [X24,#7]
0x00461210  c0 03 3f d6  BLR X30
0x00461214  e0 8d 1f f8  STR X0, [X15,#-8]!
0x00461218  42 7c 41 93  SBFX X2, X2, #1, #31
0x0046121c  a1 0f 02 8b  ADD X1, X29, X2, LSL #3
0x00461220  21 20 00 91  ADD X1, X1, #0x8
0x00461224  03 3c 00 91  ADD X3, X0, #0xf
0x00461228  5f 00 1f eb  CMP X2, XZR
0x0046122c  6d 02 00 54  B LE, .+0x4c
0x00461230  27 00 40 f9  LDR X7, [X1]
0x00461234  21 20 00 d1  SUB X1, X1, #0x8
0x00461238  63 10 00 91  ADD X3, X3, #0x4
0x0046123c  42 04 00 d1  SUB X2, X2, #0x1
0x00461240  67 c0 1f b8  STUR W7, [X3,#-4]
0x00461244  87 01 00 36  TBZ W7, #0, .+0x30
0x00461248  10 f0 5f 38  LDURB W16, [X0,#-1]
0x0046124c  f1 f0 5f 38  LDURB W17, [X7,#-1]
0x00461250  30 0a 50 8a  AND X16, X17, X16, LSR #2
0x00461254  1f 82 5c ea  TST X16, X28, LSR #32
0x00461258  e0 00 00 54  B EQ, .+0x1c
0x0046125c  e0 09 bf a9  STP X0, X2, [X15,#-16]!
0x00461260  e2 03 00 aa  MOV X2, X0
0x00461264  e0 03 07 aa  MOV X0, X7
0x00461268  5e cb 42 f9  LDR X30, [X26,#1424]
0x0046126c  c0 03 3f d6  BLR X30
0x00461270  e0 09 c1 a8  LDP X0, X2, [X15],#16
0x00461274  ed ff ff 17  B .+0xffffffffffffffb4
0x00461278  45 e3 41 f9  LDR X5, [X26,#960]
0x0046127c  84 00 80 d2  MOV X4, #0x4
0x00461280  5e 0b 41 f9  LDR X30, [X26,#528]
0x00461284  c0 03 3f d6  BLR X30
0x00461288  00 00 20 d4  BRK #0x0
0x0046128c  1f 00 16 6b  CMP W0, W22
0x00461290  60 03 00 54  B EQ, .+0x6c
0x00461294  58 f3 40 f9  LDR X24, [X26,#480]
0x00461298  fd 79 bf a9  STP X29, X30, [X15,#-16]!
0x0046129c  fd 03 0f aa  MOV X29, X15
0x004612a0  f6 8d 1f f8  STR X22, [X15,#-8]!
0x004612a4  e0 8d 1f f8  STR X0, [X15,#-8]!
0x004612a8  e8 8d 1f f8  STR X8, [X15,#-8]!
0x004612ac  e2 8d 1f f8  STR X2, [X15,#-8]!
0x004612b0  e1 8d 1f f8  STR X1, [X15,#-8]!
0x004612b4  f6 8d 1f f8  STR X22, [X15,#-8]!
0x004612b8  e3 8d 1f f8  STR X3, [X15,#-8]!
0x004612bc  10 00 80 d2  MOV X16, #0x0
0x004612c0  f0 8d 1f f8  STR X16, [X15,#-8]!
0x004612c4  45 cf 41 f9  LDR X5, [X26,#920]
0x004612c8  e4 00 80 d2  MOV X4, #0x7
0x004612cc  5e 0b 41 f9  LDR X30, [X26,#528]
0x004612d0  c0 03 3f d6  BLR X30
0x004612d4  ef 21 00 91  ADD X15, X15, #0x8
0x004612d8  e3 85 40 f8  LDR X3, [X15],#8
0x004612dc  ef 21 00 91  ADD X15, X15, #0x8
0x004612e0  e1 85 40 f8  LDR X1, [X15],#8
0x004612e4  e2 85 40 f8  LDR X2, [X15],#8
0x004612e8  e8 85 40 f8  LDR X8, [X15],#8
0x004612ec  e0 85 40 f8  LDR X0, [X15],#8
0x004612f0  ef 21 00 91  ADD X15, X15, #0x8
0x004612f4  ef 03 1d aa  MOV X15, X29
0x004612f8  fd 79 c1 a8  LDP X29, X30, [X15],#16
0x004612fc  c0 03 5f d6  RET X30
0x00461300  58 f3 40 f9  LDR X24, [X26,#480]
0x00461304  fd 79 bf a9  STP X29, X30, [X15,#-16]!
0x00461308  fd 03 0f aa  MOV X29, X15
0x0046130c  f6 8d 1f f8  STR X22, [X15,#-8]!
0x00461310  e0 8d 1f f8  STR X0, [X15,#-8]!
0x00461314  e8 8d 1f f8  STR X8, [X15,#-8]!
0x00461318  e2 8d 1f f8  STR X2, [X15,#-8]!
0x0046131c  e1 8d 1f f8  STR X1, [X15,#-8]!
0x00461320  f6 8d 1f f8  STR X22, [X15,#-8]!
0x00461324  e3 8d 1f f8  STR X3, [X15,#-8]!
0x00461328  10 00 80 d2  MOV X16, #0x0
0x0046132c  f0 8d 1f f8  STR X16, [X15,#-8]!
0x00461330  45 cf 41 f9  LDR X5, [X26,#920]
0x00461334  e4 00 80 d2  MOV X4, #0x7
0x00461338  5e 0b 41 f9  LDR X30, [X26,#528]
0x0046133c  c0 03 3f d6  BLR X30
0x00461340  ef 21 00 91  ADD X15, X15, #0x8
0x00461344  e3 85 40 f8  LDR X3, [X15],#8
0x00461348  ef 21 00 91  ADD X15, X15, #0x8
0x0046134c  e1 85 40 f8  LDR X1, [X15],#8
0x00461350  e2 85 40 f8  LDR X2, [X15],#8
0x00461354  e8 85 40 f8  LDR X8, [X15],#8
0x00461358  e0 85 40 f8  LDR X0, [X15],#8
0x0046135c  ef 21 00 91  ADD X15, X15, #0x8
0x00461360  ef 03 1d aa  MOV X15, X29
0x00461364  fd 79 c1 a8  LDP X29, X30, [X15],#16
0x00461368  c0 03 5f d6  RET X30
0x0046136c  fd 79 bf a9  STP X29, X30, [X15,#-16]!
0x00461370  fd 03 0f aa  MOV X29, X15
0x00461374  7f 00 16 6b  CMP W3, W22
0x00461378  20 03 00 54  B EQ, .+0x64
0x0046137c  04 11 40 78  LDURH W4, [X8,#1]
0x00461380  9f bc 00 f1  CMP X4, #0x2f
0x00461384  c1 01 00 54  B NE, .+0x38
0x00461388  04 85 80 39  LDRSB X4, [X8,#33]
0x0046138c  9f 08 00 f1  CMP X4, #0x2
0x00461390  61 01 00 54  B NE, .+0x2c
0x00461394  40 01 00 36  TBZ W0, #0, .+0x28
0x00461398  e3 8d 1f f8  STR X3, [X15,#-8]!
0x0046139c  78 0b 40 f9  LDR X24, [X27,#16]
0x004613a0  1e 73 40 f8  LDUR X30, [X24,#7]
0x004613a4  c0 03 3f d6  BLR X30
0x004613a8  50 6b 40 f9  LDR X16, [X26,#208]
0x004613ac  ff 00 10 6b  CMP W7, W16
0x004613b0  e3 85 40 f8  LDR X3, [X15],#8
0x004613b4  e0 03 00 54  B EQ, .+0x7c
0x004613b8  09 00 00 14  B .+0x24
0x004613bc  e3 8d 1f f8  STR X3, [X15,#-8]!
0x004613c0  78 0f 40 f9  LDR X24, [X27,#24]
0x004613c4  1e 73 40 f8  LDUR X30, [X24,#7]
0x004613c8  c0 03 3f d6  BLR X30
0x004613cc  50 6b 40 f9  LDR X16, [X26,#208]
0x004613d0  ff 00 10 6b  CMP W7, W16
0x004613d4  e3 85 40 f8  LDR X3, [X15],#8
0x004613d8  c0 02 00 54  B EQ, .+0x58
0x004613dc  f6 8d 1f f8  STR X22, [X15,#-8]!
0x004613e0  e0 8d 1f f8  STR X0, [X15,#-8]!
0x004613e4  e8 8d 1f f8  STR X8, [X15,#-8]!
0x004613e8  e2 8d 1f f8  STR X2, [X15,#-8]!
0x004613ec  e1 8d 1f f8  STR X1, [X15,#-8]!
0x004613f0  f6 8d 1f f8  STR X22, [X15,#-8]!
0x004613f4  e3 8d 1f f8  STR X3, [X15,#-8]!
0x004613f8  50 00 80 d2  MOV X16, #0x2
0x004613fc  f0 8d 1f f8  STR X16, [X15,#-8]!
0x00461400  45 cf 41 f9  LDR X5, [X26,#920]
0x00461404  e4 00 80 d2  MOV X4, #0x7
0x00461408  5e 0b 41 f9  LDR X30, [X26,#528]
0x0046140c  c0 03 3f d6  BLR X30
0x00461410  ef 21 00 91  ADD X15, X15, #0x8
0x00461414  e3 85 40 f8  LDR X3, [X15],#8
0x00461418  ef 21 00 91  ADD X15, X15, #0x8
0x0046141c  e1 85 40 f8  LDR X1, [X15],#8
0x00461420  e2 85 40 f8  LDR X2, [X15],#8
0x00461424  e8 85 40 f8  LDR X8, [X15],#8
0x00461428  e0 85 40 f8  LDR X0, [X15],#8
0x0046142c  ef 21 00 91  ADD X15, X15, #0x8
0x00461430  ef 03 1d aa  MOV X15, X29
0x00461434  fd 79 c1 a8  LDP X29, X30, [X15],#16
0x00461438  c0 03 5f d6  RET X30
0x0046143c  1f 00 16 6b  CMP W0, W22
0x00461440  80 02 00 54  B EQ, .+0x50
0x00461444  04 f1 41 78  LDURH W4, [X8,#31]
0x00461448  9f 1c 00 f1  CMP X4, #0x7
0x0046144c  20 01 00 54  B EQ, .+0x24
0x00461450  5f 00 16 6b  CMP W2, W22
0x00461454  e0 01 00 54  B EQ, .+0x3c
0x00461458  04 89 40 39  LDRB W4, [X8,#34]
0x0046145c  44 08 04 8b  ADD X4, X2, X4, LSL #2
0x00461460  84 70 41 b8  LDUR W4, [X4,#23]
0x00461464  84 80 1c 8b  ADD X4, X4, X28, LSL #32
0x00461468  90 70 40 f8  LDUR X16, [X4,#7]
0x0046146c  00 02 1f d6  BR X16
0x00461470  3f 00 16 6b  CMP W1, W22
0x00461474  e0 00 00 54  B EQ, .+0x1c
0x00461478  04 89 40 39  LDRB W4, [X8,#34]
0x0046147c  24 08 04 8b  ADD X4, X1, X4, LSL #2
0x00461480  84 70 41 b8  LDUR W4, [X4,#23]
0x00461484  84 80 1c 8b  ADD X4, X4, X28, LSL #32
0x00461488  90 70 40 f8  LDUR X16, [X4,#7]
0x0046148c  00 02 1f d6  BR X16
0x00461490  c0 03 5f d6  RET X30
0x00461494  04 f1 41 78  LDURH W4, [X8,#31]
0x00461498  9f 1c 00 f1  CMP X4, #0x7
0x0046149c  20 01 00 54  B EQ, .+0x24
0x004614a0  5f 00 16 6b  CMP W2, W22
0x004614a4  e0 01 00 54  B EQ, .+0x3c
0x004614a8  04 89 40 39  LDRB W4, [X8,#34]
0x004614ac  44 08 04 8b  ADD X4, X2, X4, LSL #2
0x004614b0  84 70 41 b8  LDUR W4, [X4,#23]
0x004614b4  84 80 1c 8b  ADD X4, X4, X28, LSL #32
0x004614b8  90 70 40 f8  LDUR X16, [X4,#7]
0x004614bc  00 02 1f d6  BR X16
0x004614c0  3f 00 16 6b  CMP W1, W22
0x004614c4  e0 00 00 54  B EQ, .+0x1c
0x004614c8  04 89 40 39  LDRB W4, [X8,#34]
0x004614cc  24 08 04 8b  ADD X4, X1, X4, LSL #2
0x004614d0  84 70 41 b8  LDUR W4, [X4,#23]
0x004614d4  84 80 1c 8b  ADD X4, X4, X28, LSL #32
0x004614d8  90 70 40 f8  LDUR X16, [X4,#7]
0x004614dc  00 02 1f d6  BR X16
0x004614e0  c0 03 5f d6  RET X30
0x004614e4  00 00 20 d4  BRK #0x0
0x004614e8  c0 03 5f d6  RET X30
0x004614ec  1f 00 16 6b  CMP W0, W22
0x004614f0  80 00 00 54  B EQ, .+0x10
0x004614f4  58 ef 40 f9  LDR X24, [X26,#472]
0x004614f8  10 73 40 f8  LDUR X16, [X24,#7]
0x004614fc  00 02 1f d6  BR X16
0x00461500  c0 03 5f d6  RET X30
0x00461504  58 ef 40 f9  LDR X24, [X26,#472]
0x00461508  10 73 40 f8  LDUR X16, [X24,#7]
0x0046150c  00 02 1f d6  BR X16
0x00461510  e7 03 16 aa  MOV X7, X22
0x00461514  63 70 40 f8  LDUR X3, [X3,#7]
0x00461518  63 3c 00 91  ADD X3, X3, #0xf
0x0046151c  c6 06 80 d2  MOV X6, #0x36
0x00461520  40 00 00 36  TBZ W0, #0, .+0x8
0x00461524  06 10 40 78  LDURH W6, [X0,#1]
0x00461528  df cc 00 f1  CMP X6, #0x33
0x0046152c  81 01 00 54  B NE, .+0x30
0x00461530  06 30 41 b8  LDUR W6, [X0,#19]
0x00461534  c6 80 1c 8b  ADD X6, X6, X28, LSL #32
0x00461538  c6 f0 41 b8  LDUR W6, [X6,#31]
0x0046153c  c6 80 1c 8b  ADD X6, X6, X28, LSL #32
0x00461540  05 70 40 b8  LDUR W5, [X0,#7]
0x00461544  a5 80 1c 8b  ADD X5, X5, X28, LSL #32
0x00461548  09 b0 40 b8  LDUR W9, [X0,#11]
0x0046154c  29 81 1c 8b  ADD X9, X9, X28, LSL #32
0x00461550  0a f0 40 b8  LDUR W10, [X0,#15]
0x00461554  4a 81 1c 8b  ADD X10, X10, X28, LSL #32
0x00461558  0e 00 00 14  B .+0x38
0x0046155c  44 43 43 f9  LDR X4, [X26,#1664]
0x00461560  84 10 40 f9  LDR X4, [X4,#32]
0x00461564  84 78 66 f8  LDR X4, [X4,X6,LSL #3]
0x00461568  e5 03 07 aa  MOV X5, X7
0x0046156c  84 b0 84 b8  LDURSW X4, [X4,#75]
0x00461570  9f 04 00 b1  CMN X4, #0x1
0x00461574  80 00 00 54  B EQ, .+0x10
0x00461578  04 08 04 8b  ADD X4, X0, X4, LSL #2
0x0046157c  85 f0 5f b8  LDUR W5, [X4,#-1]
0x00461580  a5 80 1c 8b  ADD X5, X5, X28, LSL #32
0x00461584  e9 03 07 aa  MOV X9, X7
0x00461588  ea 03 07 aa  MOV X10, X7
0x0046158c  c6 f8 7f d3  LSL X6, X6, #1
0x00461590  64 04 40 b9  LDR W4, [X3,#4]
0x00461594  84 80 1c 8b  ADD X4, X4, X28, LSL #32
0x00461598  9f 00 07 6b  CMP W4, W7
0x0046159c  e0 03 00 54  B EQ, .+0x7c
0x004615a0  9f 00 06 6b  CMP W4, W6
0x004615a4  21 03 00 54  B NE, .+0x64
0x004615a8  64 08 40 b9  LDR W4, [X3,#8]
0x004615ac  84 80 1c 8b  ADD X4, X4, X28, LSL #32
0x004615b0  9f 00 08 eb  CMP X4, X8
0x004615b4  a1 02 00 54  B NE, .+0x54
0x004615b8  64 0c 40 b9  LDR W4, [X3,#12]
0x004615bc  84 80 1c 8b  ADD X4, X4, X28, LSL #32
0x004615c0  9f 00 05 eb  CMP X4, X5
0x004615c4  21 02 00 54  B NE, .+0x44
0x004615c8  64 10 40 b9  LDR W4, [X3,#16]
0x004615cc  84 80 1c 8b  ADD X4, X4, X28, LSL #32
0x004615d0  9f 00 02 eb  CMP X4, X2
0x004615d4  a1 01 00 54  B NE, .+0x34
0x004615d8  64 14 40 b9  LDR W4, [X3,#20]
0x004615dc  84 80 1c 8b  ADD X4, X4, X28, LSL #32
0x004615e0  9f 00 01 eb  CMP X4, X1
0x004615e4  21 01 00 54  B NE, .+0x24
0x004615e8  64 18 40 b9  LDR W4, [X3,#24]
0x004615ec  84 80 1c 8b  ADD X4, X4, X28, LSL #32
0x004615f0  9f 00 09 eb  CMP X4, X9
0x004615f4  a1 00 00 54  B NE, .+0x14
0x004615f8  64 1c 40 b9  LDR W4, [X3,#28]
0x004615fc  84 80 1c 8b  ADD X4, X4, X28, LSL #32
0x00461600  9f 00 0a eb  CMP X4, X10
0x00461604  60 00 00 54  B EQ, .+0xc
0x00461608  63 80 00 91  ADD X3, X3, #0x20
0x0046160c  e1 ff ff 17  B .+0xffffffffffffff84
0x00461610  67 00 40 b9  LDR W7, [X3]
0x00461614  e7 80 1c 8b  ADD X7, X7, X28, LSL #32
0x00461618  c0 03 5f d6  RET X30
0x0046161c  e7 03 16 aa  MOV X7, X22
0x00461620  63 70 40 f8  LDUR X3, [X3,#7]
0x00461624  63 3c 00 91  ADD X3, X3, #0xf
0x00461628  c6 06 80 d2  MOV X6, #0x36
0x0046162c  40 00 00 36  TBZ W0, #0, .+0x8
0x00461630  06 10 40 78  LDURH W6, [X0,#1]
0x00461634  df cc 00 f1  CMP X6, #0x33
0x00461638  01 01 00 54  B NE, .+0x20
0x0046163c  06 30 41 b8  LDUR W6, [X0,#19]
0x00461640  c6 80 1c 8b  ADD X6, X6, X28, LSL #32
0x00461644  c6 f0 41 b8  LDUR W6, [X6,#31]
0x00461648  c6 80 1c 8b  ADD X6, X6, X28, LSL #32
0x0046164c  05 70 40 b8  LDUR W5, [X0,#7]
0x00461650  a5 80 1c 8b  ADD X5, X5, X28, LSL #32
0x00461654  0c 00 00 14  B .+0x30
0x00461658  44 43 43 f9  LDR X4, [X26,#1664]
0x0046165c  84 10 40 f9  LDR X4, [X4,#32]
0x00461660  84 78 66 f8  LDR X4, [X4,X6,LSL #3]
0x00461664  e5 03 07 aa  MOV X5, X7
0x00461668  84 b0 84 b8  LDURSW X4, [X4,#75]
0x0046166c  9f 04 00 b1  CMN X4, #0x1
0x00461670  80 00 00 54  B EQ, .+0x10
0x00461674  04 08 04 8b  ADD X4, X0, X4, LSL #2
0x00461678  85 f0 5f b8  LDUR W5, [X4,#-1]
0x0046167c  a5 80 1c 8b  ADD X5, X5, X28, LSL #32
0x00461680  c6 f8 7f d3  LSL X6, X6, #1
0x00461684  64 04 40 b9  LDR W4, [X3,#4]
0x00461688  84 80 1c 8b  ADD X4, X4, X28, LSL #32
0x0046168c  9f 00 07 6b  CMP W4, W7
0x00461690  e0 02 00 54  B EQ, .+0x5c
0x00461694  9f 00 06 6b  CMP W4, W6
0x00461698  21 02 00 54  B NE, .+0x44
0x0046169c  64 08 40 b9  LDR W4, [X3,#8]
0x004616a0  84 80 1c 8b  ADD X4, X4, X28, LSL #32
0x004616a4  9f 00 08 eb  CMP X4, X8
0x004616a8  a1 01 00 54  B NE, .+0x34
0x004616ac  64 0c 40 b9  LDR W4, [X3,#12]
0x004616b0  84 80 1c 8b  ADD X4, X4, X28, LSL #32
0x004616b4  9f 00 05 eb  CMP X4, X5
0x004616b8  21 01 00 54  B NE, .+0x24
0x004616bc  64 10 40 b9  LDR W4, [X3,#16]
0x004616c0  84 80 1c 8b  ADD X4, X4, X28, LSL #32
0x004616c4  9f 00 02 eb  CMP X4, X2
0x004616c8  a1 00 00 54  B NE, .+0x14
0x004616cc  64 14 40 b9  LDR W4, [X3,#20]
0x004616d0  84 80 1c 8b  ADD X4, X4, X28, LSL #32
0x004616d4  9f 00 01 eb  CMP X4, X1
0x004616d8  60 00 00 54  B EQ, .+0xc
0x004616dc  63 80 00 91  ADD X3, X3, #0x20
0x004616e0  e9 ff ff 17  B .+0xffffffffffffffa4
0x004616e4  67 00 40 b9  LDR W7, [X3]
0x004616e8  e7 80 1c 8b  ADD X7, X7, X28, LSL #32
0x004616ec  c0 03 5f d6  RET X30
0x004616f0  e7 03 16 aa  MOV X7, X22
0x004616f4  63 70 40 f8  LDUR X3, [X3,#7]
0x004616f8  63 3c 00 91  ADD X3, X3, #0xf
0x004616fc  06 10 40 78  LDURH W6, [X0,#1]
0x00461700  df cc 00 f1  CMP X6, #0x33
0x00461704  01 01 00 54  B NE, .+0x20
0x00461708  06 30 41 b8  LDUR W6, [X0,#19]
0x0046170c  c6 80 1c 8b  ADD X6, X6, X28, LSL #32
0x00461710  c6 f0 41 b8  LDUR W6, [X6,#31]
0x00461714  c6 80 1c 8b  ADD X6, X6, X28, LSL #32
0x00461718  05 70 40 b8  LDUR W5, [X0,#7]
0x0046171c  a5 80 1c 8b  ADD X5, X5, X28, LSL #32
0x00461720  0c 00 00 14  B .+0x30
0x00461724  44 43 43 f9  LDR X4, [X26,#1664]
0x00461728  84 10 40 f9  LDR X4, [X4,#32]
0x0046172c  84 78 66 f8  LDR X4, [X4,X6,LSL #3]
0x00461730  e5 03 07 aa  MOV X5, X7
0x00461734  84 b0 84 b8  LDURSW X4, [X4,#75]
0x00461738  9f 04 00 b1  CMN X4, #0x1
0x0046173c  80 00 00 54  B EQ, .+0x10
0x00461740  04 08 04 8b  ADD X4, X0, X4, LSL #2
0x00461744  85 f0 5f b8  LDUR W5, [X4,#-1]
0x00461748  a5 80 1c 8b  ADD X5, X5, X28, LSL #32
0x0046174c  c6 f8 7f d3  LSL X6, X6, #1
0x00461750  64 04 40 b9  LDR W4, [X3,#4]
0x00461754  84 80 1c 8b  ADD X4, X4, X28, LSL #32
0x00461758  9f 00 07 6b  CMP W4, W7
0x0046175c  e0 01 00 54  B EQ, .+0x3c
0x00461760  9f 00 06 6b  CMP W4, W6
0x00461764  21 01 00 54  B NE, .+0x24
0x00461768  64 08 40 b9  LDR W4, [X3,#8]
0x0046176c  84 80 1c 8b  ADD X4, X4, X28, LSL #32
0x00461770  9f 00 08 eb  CMP X4, X8
0x00461774  a1 00 00 54  B NE, .+0x14
0x00461778  64 0c 40 b9  LDR W4, [X3,#12]
0x0046177c  84 80 1c 8b  ADD X4, X4, X28, LSL #32
0x00461780  9f 00 05 eb  CMP X4, X5
0x00461784  60 00 00 54  B EQ, .+0xc
0x00461788  63 80 00 91  ADD X3, X3, #0x20
0x0046178c  f1 ff ff 17  B .+0xffffffffffffffc4
0x00461790  67 00 40 b9  LDR W7, [X3]
0x00461794  e7 80 1c 8b  ADD X7, X7, X28, LSL #32
0x00461798  c0 03 5f d6  RET X30
0x0046179c  e7 03 16 aa  MOV X7, X22
0x004617a0  63 70 40 f8  LDUR X3, [X3,#7]
0x004617a4  63 3c 00 91  ADD X3, X3, #0xf
0x004617a8  06 10 40 78  LDURH W6, [X0,#1]
0x004617ac  df cc 00 f1  CMP X6, #0x33
0x004617b0  c1 00 00 54  B NE, .+0x18
0x004617b4  06 30 41 b8  LDUR W6, [X0,#19]
0x004617b8  c6 80 1c 8b  ADD X6, X6, X28, LSL #32
0x004617bc  c6 f0 41 b8  LDUR W6, [X6,#31]
0x004617c0  c6 80 1c 8b  ADD X6, X6, X28, LSL #32
0x004617c4  02 00 00 14  B .+0x8
0x004617c8  c6 f8 7f d3  LSL X6, X6, #1
0x004617cc  64 04 40 b9  LDR W4, [X3,#4]
0x004617d0  84 80 1c 8b  ADD X4, X4, X28, LSL #32
0x004617d4  9f 00 07 6b  CMP W4, W7
0x004617d8  e0 00 00 54  B EQ, .+0x1c
0x004617dc  9f 00 06 6b  CMP W4, W6
0x004617e0  60 00 00 54  B EQ, .+0xc
0x004617e4  63 80 00 91  ADD X3, X3, #0x20
0x004617e8  f9 ff ff 17  B .+0xffffffffffffffe4
0x004617ec  67 00 40 b9  LDR W7, [X3]
0x004617f0  e7 80 1c 8b  ADD X7, X7, X28, LSL #32
0x004617f4  c0 03 5f d6  RET X30
0x004617f8  e3 03 08 aa  MOV X3, X8
0x004617fc  1f 00 16 6b  CMP W0, W22
0x00461800  c1 04 00 54  B NE, .+0x98
0x00461804  70 10 40 78  LDURH W16, [X3,#1]
0x00461808  1f be 00 f1  CMP X16, #0x2f
0x0046180c  c1 01 00 54  B NE, .+0x38
0x00461810  70 88 40 39  LDRB W16, [X3,#34]
0x00461814  1f 06 00 f1  CMP X16, #0x1
0x00461818  e1 03 00 54  B NE, .+0x7c
0x0046181c  64 f0 41 78  LDURH W4, [X3,#31]
0x00461820  9f 28 01 f1  CMP X4, #0x4a
0x00461824  a1 03 00 54  B NE, .+0x74
0x00461828  64 70 41 b8  LDUR W4, [X3,#23]
0x0046182c  84 80 1c 8b  ADD X4, X4, X28, LSL #32
0x00461830  9f 00 16 6b  CMP W4, W22
0x00461834  00 03 00 54  B EQ, .+0x60
0x00461838  83 70 41 b8  LDUR W3, [X4,#23]
0x0046183c  63 80 1c 8b  ADD X3, X3, X28, LSL #32
0x00461840  f1 ff ff 17  B .+0xffffffffffffffc4
0x00461844  64 90 80 39  LDRSB X4, [X3,#36]
0x00461848  9f 04 00 f1  CMP X4, #0x1
0x0046184c  41 02 00 54  B NE, .+0x48
0x00461850  64 f0 41 78  LDURH W4, [X3,#31]
0x00461854  9f 1c 00 f1  CMP X4, #0x7
0x00461858  00 01 00 54  B EQ, .+0x20
0x0046185c  5f 00 16 6b  CMP W2, W22
0x00461860  a0 01 00 54  B EQ, .+0x34
0x00461864  63 88 40 39  LDRB W3, [X3,#34]
0x00461868  43 08 03 8b  ADD X3, X2, X3, LSL #2
0x0046186c  63 70 41 b8  LDUR W3, [X3,#23]
0x00461870  63 80 1c 8b  ADD X3, X3, X28, LSL #32
0x00461874  e4 ff ff 17  B .+0xffffffffffffff90
0x00461878  3f 00 16 6b  CMP W1, W22
0x0046187c  c0 00 00 54  B EQ, .+0x18
0x00461880  63 88 40 39  LDRB W3, [X3,#34]
0x00461884  23 08 03 8b  ADD X3, X1, X3, LSL #2
0x00461888  63 70 41 b8  LDUR W3, [X3,#23]
0x0046188c  63 80 1c 8b  ADD X3, X3, X28, LSL #32
0x00461890  dd ff ff 17  B .+0xffffffffffffff74
0x00461894  03 00 80 d2  MOV X3, #0x0
0x00461898  c0 03 5f d6  RET X30
0x0046189c  e3 03 08 aa  MOV X3, X8
0x004618a0  1f 00 16 6b  CMP W0, W22
0x004618a4  41 00 00 54  B NE, .+0x8
0x004618a8  03 00 80 d2  MOV X3, #0x0
0x004618ac  c0 03 5f d6  RET X30
0x004618b0  e3 03 08 aa  MOV X3, X8
0x004618b4  70 10 40 78  LDURH W16, [X3,#1]
0x004618b8  1f be 00 f1  CMP X16, #0x2f
0x004618bc  c1 01 00 54  B NE, .+0x38
0x004618c0  64 f0 41 78  LDURH W4, [X3,#31]
0x004618c4  9f 5c 02 f1  CMP X4, #0x97
0x004618c8  40 01 00 54  B EQ, .+0x28
0x004618cc  9f 60 02 f1  CMP X4, #0x98
0x004618d0  00 01 00 54  B EQ, .+0x20
0x004618d4  9f 28 01 f1  CMP X4, #0x4a
0x004618d8  00 01 00 54  B EQ, .+0x20
0x004618dc  9f ac 00 f1  CMP X4, #0x2b
0x004618e0  a1 00 00 54  B NE, .+0x14
0x004618e4  70 88 40 39  LDRB W16, [X3,#34]
0x004618e8  1f 06 00 f1  CMP X16, #0x1
0x004618ec  40 00 00 54  B EQ, .+0x8
0x004618f0  03 00 80 d2  MOV X3, #0x0
0x004618f4  c0 03 5f d6  RET X30
0x004618f8  64 70 41 b8  LDUR W4, [X3,#23]
0x004618fc  84 80 1c 8b  ADD X4, X4, X28, LSL #32
0x00461900  9f 00 16 6b  CMP W4, W22
0x00461904  60 ff ff 54  B EQ, .+0xffffffffffffffec
0x00461908  83 70 41 b8  LDUR W3, [X4,#23]
0x0046190c  63 80 1c 8b  ADD X3, X3, X28, LSL #32
0x00461910  e9 ff ff 17  B .+0xffffffffffffffa4
0x00461914  e3 03 08 aa  MOV X3, X8
0x00461918  70 10 40 78  LDURH W16, [X3,#1]
0x0046191c  1f be 00 f1  CMP X16, #0x2f
0x00461920  61 01 00 54  B NE, .+0x2c
0x00461924  64 f0 41 78  LDURH W4, [X3,#31]
0x00461928  9f 5c 02 f1  CMP X4, #0x97
0x0046192c  e0 00 00 54  B EQ, .+0x1c
0x00461930  9f 60 02 f1  CMP X4, #0x98
0x00461934  a0 00 00 54  B EQ, .+0x14
0x00461938  9f 28 01 f1  CMP X4, #0x4a
0x0046193c  a0 00 00 54  B EQ, .+0x14
0x00461940  9f ac 00 f1  CMP X4, #0x2b
0x00461944  41 00 00 54  B NE, .+0x8
0x00461948  03 00 80 d2  MOV X3, #0x0
0x0046194c  c0 03 5f d6  RET X30
0x00461950  64 70 41 b8  LDUR W4, [X3,#23]
0x00461954  84 80 1c 8b  ADD X4, X4, X28, LSL #32
0x00461958  9f 00 16 6b  CMP W4, W22
0x0046195c  60 ff ff 54  B EQ, .+0xffffffffffffffec
0x00461960  83 70 41 b8  LDUR W3, [X4,#23]
0x00461964  63 80 1c 8b  ADD X3, X3, X28, LSL #32
0x00461968  ec ff ff 17  B .+0xffffffffffffffb0
0x0046196c  00 00 20 d4  BRK #0x0
0x00461970  fd 79 bf a9  STP X29, X30, [X15,#-16]!
0x00461974  fd 03 0f aa  MOV X29, X15
0x00461978  e2 8d 1f f8  STR X2, [X15,#-8]!
0x0046197c  e1 8d 1f f8  STR X1, [X15,#-8]!
0x00461980  e0 8d 1f f8  STR X0, [X15,#-8]!
0x00461984  e8 8d 1f f8  STR X8, [X15,#-8]!
0x00461988  e3 8d 1f f8  STR X3, [X15,#-8]!
0x0046198c  45 cb 41 f9  LDR X5, [X26,#912]
0x00461990  a4 00 80 d2  MOV X4, #0x5
0x00461994  5e 0b 41 f9  LDR X30, [X26,#528]
0x00461998  c0 03 3f d6  BLR X30
0x0046199c  ef a1 00 91  ADD X15, X15, #0x28
0x004619a0  ef 03 1d aa  MOV X15, X29
0x004619a4  fd 79 c1 a8  LDP X29, X30, [X15],#16
0x004619a8  c0 03 5f d6  RET X30
0x004619ac  00 00 20 d4  BRK #0x0
0x004619b0  00 00 20 d4  BRK #0x0
0x004619b4  00 00 20 d4  BRK #0x0
0x004619b8  00 00 20 d4  BRK #0x0
0x004619bc  e8 00 80 d2  MOV X8, #0x7
0x004619c0  02 00 00 14  B .+0x8
0x004619c4  e8 01 80 d2  MOV X8, #0xf
0x004619c8  00 00 20 d4  BRK #0x0
0x004619cc  a6 70 41 f8  LDUR X6, [X5,#23]
0x004619d0  c6 3c 00 91  ADD X6, X6, #0xf
0x004619d4  a4 f0 40 f8  LDUR X4, [X5,#15]
0x004619d8  c0 04 40 b9  LDR W0, [X6,#4]
0x004619dc  00 80 1c 8b  ADD X0, X0, X28, LSL #32
0x004619e0  18 b0 42 b8  LDUR W24, [X0,#43]
0x004619e4  18 83 1c 8b  ADD X24, X24, X28, LSL #32
0x004619e8  02 00 08 8b  ADD X2, X0, X8
0x004619ec  42 00 40 f9  LDR X2, [X2]
0x004619f0  40 00 1f d6  BR X2
0x004619f4  00 00 20 d4  BRK #0x0
0x004619f8  00 00 20 d4  BRK #0x0
0x004619fc  00 00 20 d4  BRK #0x0
0x00461a00  00 00 20 d4  BRK #0x0
0x00461a04  00 00 20 d4  BRK #0x0
0x00461a08  00 00 20 d4  BRK #0x0
0x00461a0c  00 00 20 d4  BRK #0x0
0x00461a10  00 00 20 d4  BRK #0x0
0x00461a14  00 00 20 d4  BRK #0x0
0x00461a18  00 00 20 d4  BRK #0x0
0x00461a1c  e1 05 40 f9  LDR X1, [X15,#8]
0x00461a20  e0 01 40 f9  LDR X0, [X15]
0x00461a24  c1 02 00 36  TBZ W1, #0, .+0x58
0x00461a28  a0 02 00 36  TBZ W0, #0, .+0x54
0x00461a2c  30 10 40 78  LDURH W16, [X1,#1]
0x00461a30  1f e2 00 f1  CMP X16, #0x38
0x00461a34  01 01 00 54  B NE, .+0x20
0x00461a38  10 10 40 78  LDURH W16, [X0,#1]
0x00461a3c  1f e2 00 f1  CMP X16, #0x38
0x00461a40  e1 01 00 54  B NE, .+0x3c
0x00461a44  21 70 40 f8  LDUR X1, [X1,#7]
0x00461a48  00 70 40 f8  LDUR X0, [X0,#7]
0x00461a4c  3f 00 00 eb  CMP X1, X0
0x00461a50  c0 03 5f d6  RET X30
0x00461a54  30 10 40 78  LDURH W16, [X1,#1]
0x00461a58  1f de 00 f1  CMP X16, #0x37
0x00461a5c  01 01 00 54  B NE, .+0x20
0x00461a60  10 10 40 78  LDURH W16, [X0,#1]
0x00461a64  1f de 00 f1  CMP X16, #0x37
0x00461a68  a1 00 00 54  B NE, .+0x14
0x00461a6c  21 70 40 f8  LDUR X1, [X1,#7]
0x00461a70  00 70 40 f8  LDUR X0, [X0,#7]
0x00461a74  3f 00 00 eb  CMP X1, X0
0x00461a78  c0 03 5f d6  RET X30
0x00461a7c  3f 00 00 6b  CMP W1, W0
0x00461a80  c0 03 5f d6  RET X30
0x00461a84  e1 05 40 f9  LDR X1, [X15,#8]
0x00461a88  e0 01 40 f9  LDR X0, [X15]
0x00461a8c  c1 02 00 36  TBZ W1, #0, .+0x58
0x00461a90  a0 02 00 36  TBZ W0, #0, .+0x54
0x00461a94  30 10 40 78  LDURH W16, [X1,#1]
0x00461a98  1f e2 00 f1  CMP X16, #0x38
0x00461a9c  01 01 00 54  B NE, .+0x20
0x00461aa0  10 10 40 78  LDURH W16, [X0,#1]
0x00461aa4  1f e2 00 f1  CMP X16, #0x38
0x00461aa8  e1 01 00 54  B NE, .+0x3c
0x00461aac  21 70 40 f8  LDUR X1, [X1,#7]
0x00461ab0  00 70 40 f8  LDUR X0, [X0,#7]
0x00461ab4  3f 00 00 eb  CMP X1, X0
0x00461ab8  c0 03 5f d6  RET X30
0x00461abc  30 10 40 78  LDURH W16, [X1,#1]
0x00461ac0  1f de 00 f1  CMP X16, #0x37
0x00461ac4  01 01 00 54  B NE, .+0x20
0x00461ac8  10 10 40 78  LDURH W16, [X0,#1]
0x00461acc  1f de 00 f1  CMP X16, #0x37
0x00461ad0  a1 00 00 54  B NE, .+0x14
0x00461ad4  21 70 40 f8  LDUR X1, [X1,#7]
0x00461ad8  00 70 40 f8  LDUR X0, [X0,#7]
0x00461adc  3f 00 00 eb  CMP X1, X0
0x00461ae0  c0 03 5f d6  RET X30
0x00461ae4  3f 00 00 6b  CMP W1, W0
0x00461ae8  c0 03 5f d6  RET X30
0x00461aec  30 3e 9e d2  MOV X16, #0xf1f1
0x00461af0  30 3e be f2  MOVK X16, #0xf1f1, LSL #16
0x00461af4  f0 8d 1f f8  STR X16, [X15,#-8]!
0x00461af8  3e 3c 9c d2  MOV X30, #0xe1e1
0x00461afc  3e 3c bc f2  MOVK X30, #0xe1e1, LSL #16
0x00461b00  58 eb 40 f9  LDR X24, [X26,#464]
0x00461b04  fd 79 bf a9  STP X29, X30, [X15,#-16]!
0x00461b08  fd 03 0f aa  MOV X29, X15
0x00461b0c  ff 8d 1f f8  STR XZR, [X15,#-8]!
0x00461b10  fe 8d 1f f8  STR X30, [X15,#-8]!
0x00461b14  fd 8d 1f f8  STR X29, [X15,#-8]!
0x00461b18  fc 8d 1f f8  STR X28, [X15,#-8]!
0x00461b1c  fb 8d 1f f8  STR X27, [X15,#-8]!
0x00461b20  fa 8d 1f f8  STR X26, [X15,#-8]!
0x00461b24  f9 8d 1f f8  STR X25, [X15,#-8]!
0x00461b28  b9 0b 40 f9  LDR X25, [X29,#16]
0x00461b2c  f9 8d 1f f8  STR X25, [X15,#-8]!
0x00461b30  f7 8d 1f f8  STR X23, [X15,#-8]!
0x00461b34  f6 8d 1f f8  STR X22, [X15,#-8]!
0x00461b38  f5 8d 1f f8  STR X21, [X15,#-8]!
0x00461b3c  f4 8d 1f f8  STR X20, [X15,#-8]!
0x00461b40  f3 8d 1f f8  STR X19, [X15,#-8]!
0x00461b44  f2 8d 1f f8  STR X18, [X15,#-8]!
0x00461b48  f1 8d 1f f8  STR X17, [X15,#-8]!
0x00461b4c  f0 8d 1f f8  STR X16, [X15,#-8]!
0x00461b50  f0 03 0f aa  MOV X16, X15
0x00461b54  f0 8d 1f f8  STR X16, [X15,#-8]!
0x00461b58  ee 8d 1f f8  STR X14, [X15,#-8]!
0x00461b5c  ed 8d 1f f8  STR X13, [X15,#-8]!
0x00461b60  ec 8d 1f f8  STR X12, [X15,#-8]!
0x00461b64  eb 8d 1f f8  STR X11, [X15,#-8]!
0x00461b68  ea 8d 1f f8  STR X10, [X15,#-8]!
0x00461b6c  e9 8d 1f f8  STR X9, [X15,#-8]!
0x00461b70  e8 8d 1f f8  STR X8, [X15,#-8]!
0x00461b74  e7 8d 1f f8  STR X7, [X15,#-8]!
0x00461b78  e6 8d 1f f8  STR X6, [X15,#-8]!
0x00461b7c  e5 8d 1f f8  STR X5, [X15,#-8]!
0x00461b80  e4 8d 1f f8  STR X4, [X15,#-8]!
0x00461b84  e3 8d 1f f8  STR X3, [X15,#-8]!
0x00461b88  e2 8d 1f f8  STR X2, [X15,#-8]!
0x00461b8c  e1 8d 1f f8  STR X1, [X15,#-8]!
0x00461b90  e0 8d 1f f8  STR X0, [X15,#-8]!
0x00461b94  ff 0d 9f 3c  STR Q31, [X15,#-16]!
0x00461b98  fe 0d 9f 3c  STR Q30, [X15,#-16]!
0x00461b9c  fd 0d 9f 3c  STR Q29, [X15,#-16]!
0x00461ba0  fc 0d 9f 3c  STR Q28, [X15,#-16]!
0x00461ba4  fb 0d 9f 3c  STR Q27, [X15,#-16]!
0x00461ba8  fa 0d 9f 3c  STR Q26, [X15,#-16]!
0x00461bac  f9 0d 9f 3c  STR Q25, [X15,#-16]!
0x00461bb0  f8 0d 9f 3c  STR Q24, [X15,#-16]!
0x00461bb4  f7 0d 9f 3c  STR Q23, [X15,#-16]!
0x00461bb8  f6 0d 9f 3c  STR Q22, [X15,#-16]!
0x00461bbc  f5 0d 9f 3c  STR Q21, [X15,#-16]!
0x00461bc0  f4 0d 9f 3c  STR Q20, [X15,#-16]!
0x00461bc4  f3 0d 9f 3c  STR Q19, [X15,#-16]!
0x00461bc8  f2 0d 9f 3c  STR Q18, [X15,#-16]!
0x00461bcc  f1 0d 9f 3c  STR Q17, [X15,#-16]!
0x00461bd0  f0 0d 9f 3c  STR Q16, [X15,#-16]!
0x00461bd4  ef 0d 9f 3c  STR Q15, [X15,#-16]!
0x00461bd8  ee 0d 9f 3c  STR Q14, [X15,#-16]!
0x00461bdc  ed 0d 9f 3c  STR Q13, [X15,#-16]!
0x00461be0  ec 0d 9f 3c  STR Q12, [X15,#-16]!
0x00461be4  eb 0d 9f 3c  STR Q11, [X15,#-16]!
0x00461be8  ea 0d 9f 3c  STR Q10, [X15,#-16]!
0x00461bec  e9 0d 9f 3c  STR Q9, [X15,#-16]!
0x00461bf0  e8 0d 9f 3c  STR Q8, [X15,#-16]!
0x00461bf4  e7 0d 9f 3c  STR Q7, [X15,#-16]!
0x00461bf8  e6 0d 9f 3c  STR Q6, [X15,#-16]!
0x00461bfc  e5 0d 9f 3c  STR Q5, [X15,#-16]!
0x00461c00  e4 0d 9f 3c  STR Q4, [X15,#-16]!
0x00461c04  e3 0d 9f 3c  STR Q3, [X15,#-16]!
0x00461c08  e2 0d 9f 3c  STR Q2, [X15,#-16]!
0x00461c0c  e1 0d 9f 3c  STR Q1, [X15,#-16]!
0x00461c10  e0 0d 9f 3c  STR Q0, [X15,#-16]!
0x00461c14  e0 03 0f aa  MOV X0, X15
0x00461c18  21 00 80 d2  MOV X1, #0x1
0x00461c1c  ef ed 7c 92  AND X15, X15, #0xfffffffffffffff0
0x00461c20  f4 03 00 91  MOV X20, SP
0x00461c24  f9 03 0f aa  MOV X25, X15
0x00461c28  ef ed 7c 92  AND X15, X15, #0xfffffffffffffff0
0x00461c2c  ff 01 00 91  MOV SP, X15
0x00461c30  50 4b 42 f9  LDR X16, [X26,#1168]
0x00461c34  50 5b 00 f9  STR X16, [X26,#176]
0x00461c38  00 02 3f d6  BLR X16
0x00461c3c  10 01 80 d2  MOV X16, #0x8
0x00461c40  50 5b 00 f9  STR X16, [X26,#176]
0x00461c44  ef 03 19 aa  MOV X15, X25
0x00461c48  9f 02 00 91  MOV SP, X20
0x00461c4c  a1 03 50 f8  LDUR X1, [X29,#-256]
0x00461c50  a2 83 50 f8  LDUR X2, [X29,#-248]
0x00461c54  b8 03 40 f9  LDR X24, [X29]
0x00461c58  ef 03 1d aa  MOV X15, X29
0x00461c5c  fd 79 c1 a8  LDP X29, X30, [X15],#16
0x00461c60  af 03 00 cb  SUB X15, X29, X0
0x00461c64  fd 79 bf a9  STP X29, X30, [X15,#-16]!
0x00461c68  fd 03 0f aa  MOV X29, X15
0x00461c6c  e1 8d 1f f8  STR X1, [X15,#-8]!
0x00461c70  e2 8d 1f f8  STR X2, [X15,#-8]!
0x00461c74  ef ed 7c 92  AND X15, X15, #0xfffffffffffffff0
0x00461c78  e0 03 1d aa  MOV X0, X29
0x00461c7c  f4 03 00 91  MOV X20, SP
0x00461c80  f9 03 0f aa  MOV X25, X15
0x00461c84  ef ed 7c 92  AND X15, X15, #0xfffffffffffffff0
0x00461c88  ff 01 00 91  MOV SP, X15
0x00461c8c  50 4f 42 f9  LDR X16, [X26,#1176]
0x00461c90  50 5b 00 f9  STR X16, [X26,#176]
0x00461c94  00 02 3f d6  BLR X16
0x00461c98  10 01 80 d2  MOV X16, #0x8
0x00461c9c  50 5b 00 f9  STR X16, [X26,#176]
0x00461ca0  ef 03 19 aa  MOV X15, X25
0x00461ca4  9f 02 00 91  MOV SP, X20
0x00461ca8  a1 83 5f f8  LDUR X1, [X29,#-8]
0x00461cac  a2 03 5f f8  LDUR X2, [X29,#-16]
0x00461cb0  b8 03 40 f9  LDR X24, [X29]
0x00461cb4  ef 03 1d aa  MOV X15, X29
0x00461cb8  fd 79 c1 a8  LDP X29, X30, [X15],#16
0x00461cbc  fd 79 bf a9  STP X29, X30, [X15,#-16]!
0x00461cc0  fd 03 0f aa  MOV X29, X15
0x00461cc4  e1 8d 1f f8  STR X1, [X15,#-8]!
0x00461cc8  e2 8d 1f f8  STR X2, [X15,#-8]!
0x00461ccc  ff 8d 1f f8  STR XZR, [X15,#-8]!
0x00461cd0  45 23 42 f9  LDR X5, [X26,#1088]
0x00461cd4  04 00 80 d2  MOV X4, #0x0
0x00461cd8  5e 0b 41 f9  LDR X30, [X26,#528]
0x00461cdc  c0 03 3f d6  BLR X30
0x00461ce0  e2 85 40 f8  LDR X2, [X15],#8
0x00461ce4  42 7c 41 93  SBFX X2, X2, #1, #31
0x00461ce8  e1 85 40 f8  LDR X1, [X15],#8
0x00461cec  e0 85 40 f8  LDR X0, [X15],#8
0x00461cf0  ef 03 1d aa  MOV X15, X29
0x00461cf4  fd 79 c1 a8  LDP X29, X30, [X15],#16
0x00461cf8  ef 01 02 8b  ADD X15, X15, X2
0x00461cfc  c0 03 5f d6  RET X30
0x00461d00  30 3e 9e d2  MOV X16, #0xf1f1
0x00461d04  30 3e be f2  MOVK X16, #0xf1f1, LSL #16
0x00461d08  f0 8d 1f f8  STR X16, [X15,#-8]!
0x00461d0c  3e 3c 9c d2  MOV X30, #0xe1e1
0x00461d10  3e 3c bc f2  MOVK X30, #0xe1e1, LSL #16
0x00461d14  58 e7 40 f9  LDR X24, [X26,#456]
0x00461d18  fd 79 bf a9  STP X29, X30, [X15,#-16]!
0x00461d1c  fd 03 0f aa  MOV X29, X15
0x00461d20  ff 8d 1f f8  STR XZR, [X15,#-8]!
0x00461d24  fe 8d 1f f8  STR X30, [X15,#-8]!
0x00461d28  fd 8d 1f f8  STR X29, [X15,#-8]!
0x00461d2c  fc 8d 1f f8  STR X28, [X15,#-8]!
0x00461d30  fb 8d 1f f8  STR X27, [X15,#-8]!
0x00461d34  fa 8d 1f f8  STR X26, [X15,#-8]!
0x00461d38  f9 8d 1f f8  STR X25, [X15,#-8]!
0x00461d3c  b9 0b 40 f9  LDR X25, [X29,#16]
0x00461d40  f9 8d 1f f8  STR X25, [X15,#-8]!
0x00461d44  f7 8d 1f f8  STR X23, [X15,#-8]!
0x00461d48  f6 8d 1f f8  STR X22, [X15,#-8]!
0x00461d4c  f5 8d 1f f8  STR X21, [X15,#-8]!
0x00461d50  f4 8d 1f f8  STR X20, [X15,#-8]!
0x00461d54  f3 8d 1f f8  STR X19, [X15,#-8]!
0x00461d58  f2 8d 1f f8  STR X18, [X15,#-8]!
0x00461d5c  f1 8d 1f f8  STR X17, [X15,#-8]!
0x00461d60  f0 8d 1f f8  STR X16, [X15,#-8]!
0x00461d64  f0 03 0f aa  MOV X16, X15
0x00461d68  f0 8d 1f f8  STR X16, [X15,#-8]!
0x00461d6c  ee 8d 1f f8  STR X14, [X15,#-8]!
0x00461d70  ed 8d 1f f8  STR X13, [X15,#-8]!
0x00461d74  ec 8d 1f f8  STR X12, [X15,#-8]!
0x00461d78  eb 8d 1f f8  STR X11, [X15,#-8]!
0x00461d7c  ea 8d 1f f8  STR X10, [X15,#-8]!
0x00461d80  e9 8d 1f f8  STR X9, [X15,#-8]!
0x00461d84  e8 8d 1f f8  STR X8, [X15,#-8]!
0x00461d88  e7 8d 1f f8  STR X7, [X15,#-8]!
0x00461d8c  e6 8d 1f f8  STR X6, [X15,#-8]!
0x00461d90  e5 8d 1f f8  STR X5, [X15,#-8]!
0x00461d94  e4 8d 1f f8  STR X4, [X15,#-8]!
0x00461d98  e3 8d 1f f8  STR X3, [X15,#-8]!
0x00461d9c  e2 8d 1f f8  STR X2, [X15,#-8]!
0x00461da0  e1 8d 1f f8  STR X1, [X15,#-8]!
0x00461da4  e0 8d 1f f8  STR X0, [X15,#-8]!
0x00461da8  ff 0d 9f 3c  STR Q31, [X15,#-16]!
0x00461dac  fe 0d 9f 3c  STR Q30, [X15,#-16]!
0x00461db0  fd 0d 9f 3c  STR Q29, [X15,#-16]!
0x00461db4  fc 0d 9f 3c  STR Q28, [X15,#-16]!
0x00461db8  fb 0d 9f 3c  STR Q27, [X15,#-16]!
0x00461dbc  fa 0d 9f 3c  STR Q26, [X15,#-16]!
0x00461dc0  f9 0d 9f 3c  STR Q25, [X15,#-16]!
0x00461dc4  f8 0d 9f 3c  STR Q24, [X15,#-16]!
0x00461dc8  f7 0d 9f 3c  STR Q23, [X15,#-16]!
0x00461dcc  f6 0d 9f 3c  STR Q22, [X15,#-16]!
0x00461dd0  f5 0d 9f 3c  STR Q21, [X15,#-16]!
0x00461dd4  f4 0d 9f 3c  STR Q20, [X15,#-16]!
0x00461dd8  f3 0d 9f 3c  STR Q19, [X15,#-16]!
0x00461ddc  f2 0d 9f 3c  STR Q18, [X15,#-16]!
0x00461de0  f1 0d 9f 3c  STR Q17, [X15,#-16]!
0x00461de4  f0 0d 9f 3c  STR Q16, [X15,#-16]!
0x00461de8  ef 0d 9f 3c  STR Q15, [X15,#-16]!
0x00461dec  ee 0d 9f 3c  STR Q14, [X15,#-16]!
0x00461df0  ed 0d 9f 3c  STR Q13, [X15,#-16]!
0x00461df4  ec 0d 9f 3c  STR Q12, [X15,#-16]!
0x00461df8  eb 0d 9f 3c  STR Q11, [X15,#-16]!
0x00461dfc  ea 0d 9f 3c  STR Q10, [X15,#-16]!
0x00461e00  e9 0d 9f 3c  STR Q9, [X15,#-16]!
0x00461e04  e8 0d 9f 3c  STR Q8, [X15,#-16]!
0x00461e08  e7 0d 9f 3c  STR Q7, [X15,#-16]!
0x00461e0c  e6 0d 9f 3c  STR Q6, [X15,#-16]!
0x00461e10  e5 0d 9f 3c  STR Q5, [X15,#-16]!
0x00461e14  e4 0d 9f 3c  STR Q4, [X15,#-16]!
0x00461e18  e3 0d 9f 3c  STR Q3, [X15,#-16]!
0x00461e1c  e2 0d 9f 3c  STR Q2, [X15,#-16]!
0x00461e20  e1 0d 9f 3c  STR Q1, [X15,#-16]!
0x00461e24  e0 0d 9f 3c  STR Q0, [X15,#-16]!
0x00461e28  e0 03 0f aa  MOV X0, X15
0x00461e2c  21 00 80 d2  MOV X1, #0x1
0x00461e30  ef ed 7c 92  AND X15, X15, #0xfffffffffffffff0
0x00461e34  f4 03 00 91  MOV X20, SP
0x00461e38  f9 03 0f aa  MOV X25, X15
0x00461e3c  ef ed 7c 92  AND X15, X15, #0xfffffffffffffff0
0x00461e40  ff 01 00 91  MOV SP, X15
0x00461e44  50 4b 42 f9  LDR X16, [X26,#1168]
0x00461e48  50 5b 00 f9  STR X16, [X26,#176]
0x00461e4c  00 02 3f d6  BLR X16
0x00461e50  10 01 80 d2  MOV X16, #0x8
0x00461e54  50 5b 00 f9  STR X16, [X26,#176]
0x00461e58  ef 03 19 aa  MOV X15, X25
0x00461e5c  9f 02 00 91  MOV SP, X20
0x00461e60  a1 03 50 f8  LDUR X1, [X29,#-256]
0x00461e64  b8 03 40 f9  LDR X24, [X29]
0x00461e68  ef 03 1d aa  MOV X15, X29
0x00461e6c  fd 79 c1 a8  LDP X29, X30, [X15],#16
0x00461e70  af 03 00 cb  SUB X15, X29, X0
0x00461e74  fd 79 bf a9  STP X29, X30, [X15,#-16]!
0x00461e78  fd 03 0f aa  MOV X29, X15
0x00461e7c  e1 8d 1f f8  STR X1, [X15,#-8]!
0x00461e80  ef ed 7c 92  AND X15, X15, #0xfffffffffffffff0
0x00461e84  e0 03 1d aa  MOV X0, X29
0x00461e88  f4 03 00 91  MOV X20, SP
0x00461e8c  f9 03 0f aa  MOV X25, X15
0x00461e90  ef ed 7c 92  AND X15, X15, #0xfffffffffffffff0
0x00461e94  ff 01 00 91  MOV SP, X15
0x00461e98  50 4f 42 f9  LDR X16, [X26,#1176]
0x00461e9c  50 5b 00 f9  STR X16, [X26,#176]
0x00461ea0  00 02 3f d6  BLR X16
0x00461ea4  10 01 80 d2  MOV X16, #0x8
0x00461ea8  50 5b 00 f9  STR X16, [X26,#176]
0x00461eac  ef 03 19 aa  MOV X15, X25
0x00461eb0  9f 02 00 91  MOV SP, X20
0x00461eb4  a1 83 5f f8  LDUR X1, [X29,#-8]
0x00461eb8  b8 03 40 f9  LDR X24, [X29]
0x00461ebc  ef 03 1d aa  MOV X15, X29
0x00461ec0  fd 79 c1 a8  LDP X29, X30, [X15],#16
0x00461ec4  fd 79 bf a9  STP X29, X30, [X15,#-16]!
0x00461ec8  fd 03 0f aa  MOV X29, X15
0x00461ecc  e1 8d 1f f8  STR X1, [X15,#-8]!
0x00461ed0  ff 8d 1f f8  STR XZR, [X15,#-8]!
0x00461ed4  45 23 42 f9  LDR X5, [X26,#1088]
0x00461ed8  04 00 80 d2  MOV X4, #0x0
0x00461edc  5e 0b 41 f9  LDR X30, [X26,#528]
0x00461ee0  c0 03 3f d6  BLR X30
0x00461ee4  e2 85 40 f8  LDR X2, [X15],#8
0x00461ee8  42 7c 41 93  SBFX X2, X2, #1, #31
0x00461eec  e0 85 40 f8  LDR X0, [X15],#8
0x00461ef0  ef 03 1d aa  MOV X15, X29
0x00461ef4  fd 79 c1 a8  LDP X29, X30, [X15],#16
0x00461ef8  ef 01 02 8b  ADD X15, X15, X2
0x00461efc  c0 03 5f d6  RET X30
0x00461f00  f8 8d 1f f8  STR X24, [X15,#-8]!
0x00461f04  58 e3 40 f9  LDR X24, [X26,#448]
0x00461f08  fd 79 bf a9  STP X29, X30, [X15,#-16]!
0x00461f0c  fd 03 0f aa  MOV X29, X15
0x00461f10  ff 8d 1f f8  STR XZR, [X15,#-8]!
0x00461f14  fe 8d 1f f8  STR X30, [X15,#-8]!
0x00461f18  fd 8d 1f f8  STR X29, [X15,#-8]!
0x00461f1c  fc 8d 1f f8  STR X28, [X15,#-8]!
0x00461f20  fb 8d 1f f8  STR X27, [X15,#-8]!
0x00461f24  fa 8d 1f f8  STR X26, [X15,#-8]!
0x00461f28  f9 8d 1f f8  STR X25, [X15,#-8]!
0x00461f2c  b9 0b 40 f9  LDR X25, [X29,#16]
0x00461f30  f9 8d 1f f8  STR X25, [X15,#-8]!
0x00461f34  f7 8d 1f f8  STR X23, [X15,#-8]!
0x00461f38  f6 8d 1f f8  STR X22, [X15,#-8]!
0x00461f3c  f5 8d 1f f8  STR X21, [X15,#-8]!
0x00461f40  f4 8d 1f f8  STR X20, [X15,#-8]!
0x00461f44  f3 8d 1f f8  STR X19, [X15,#-8]!
0x00461f48  f2 8d 1f f8  STR X18, [X15,#-8]!
0x00461f4c  f1 8d 1f f8  STR X17, [X15,#-8]!
0x00461f50  f0 8d 1f f8  STR X16, [X15,#-8]!
0x00461f54  f0 03 0f aa  MOV X16, X15
0x00461f58  f0 8d 1f f8  STR X16, [X15,#-8]!
0x00461f5c  ee 8d 1f f8  STR X14, [X15,#-8]!
0x00461f60  ed 8d 1f f8  STR X13, [X15,#-8]!
0x00461f64  ec 8d 1f f8  STR X12, [X15,#-8]!
0x00461f68  eb 8d 1f f8  STR X11, [X15,#-8]!
0x00461f6c  ea 8d 1f f8  STR X10, [X15,#-8]!
0x00461f70  e9 8d 1f f8  STR X9, [X15,#-8]!
0x00461f74  e8 8d 1f f8  STR X8, [X15,#-8]!
0x00461f78  e7 8d 1f f8  STR X7, [X15,#-8]!
0x00461f7c  e6 8d 1f f8  STR X6, [X15,#-8]!
0x00461f80  e5 8d 1f f8  STR X5, [X15,#-8]!
0x00461f84  e4 8d 1f f8  STR X4, [X15,#-8]!
0x00461f88  e3 8d 1f f8  STR X3, [X15,#-8]!
0x00461f8c  e2 8d 1f f8  STR X2, [X15,#-8]!
0x00461f90  e1 8d 1f f8  STR X1, [X15,#-8]!
0x00461f94  e0 8d 1f f8  STR X0, [X15,#-8]!
0x00461f98  ff 0d 9f 3c  STR Q31, [X15,#-16]!
0x00461f9c  fe 0d 9f 3c  STR Q30, [X15,#-16]!
0x00461fa0  fd 0d 9f 3c  STR Q29, [X15,#-16]!
0x00461fa4  fc 0d 9f 3c  STR Q28, [X15,#-16]!
0x00461fa8  fb 0d 9f 3c  STR Q27, [X15,#-16]!
0x00461fac  fa 0d 9f 3c  STR Q26, [X15,#-16]!
0x00461fb0  f9 0d 9f 3c  STR Q25, [X15,#-16]!
0x00461fb4  f8 0d 9f 3c  STR Q24, [X15,#-16]!
0x00461fb8  f7 0d 9f 3c  STR Q23, [X15,#-16]!
0x00461fbc  f6 0d 9f 3c  STR Q22, [X15,#-16]!
0x00461fc0  f5 0d 9f 3c  STR Q21, [X15,#-16]!
0x00461fc4  f4 0d 9f 3c  STR Q20, [X15,#-16]!
0x00461fc8  f3 0d 9f 3c  STR Q19, [X15,#-16]!
0x00461fcc  f2 0d 9f 3c  STR Q18, [X15,#-16]!
0x00461fd0  f1 0d 9f 3c  STR Q17, [X15,#-16]!
0x00461fd4  f0 0d 9f 3c  STR Q16, [X15,#-16]!
0x00461fd8  ef 0d 9f 3c  STR Q15, [X15,#-16]!
0x00461fdc  ee 0d 9f 3c  STR Q14, [X15,#-16]!
0x00461fe0  ed 0d 9f 3c  STR Q13, [X15,#-16]!
0x00461fe4  ec 0d 9f 3c  STR Q12, [X15,#-16]!
0x00461fe8  eb 0d 9f 3c  STR Q11, [X15,#-16]!
0x00461fec  ea 0d 9f 3c  STR Q10, [X15,#-16]!
0x00461ff0  e9 0d 9f 3c  STR Q9, [X15,#-16]!
0x00461ff4  e8 0d 9f 3c  STR Q8, [X15,#-16]!
0x00461ff8  e7 0d 9f 3c  STR Q7, [X15,#-16]!
0x00461ffc  e6 0d 9f 3c  STR Q6, [X15,#-16]!
0x00462000  e5 0d 9f 3c  STR Q5, [X15,#-16]!
0x00462004  e4 0d 9f 3c  STR Q4, [X15,#-16]!
0x00462008  e3 0d 9f 3c  STR Q3, [X15,#-16]!
0x0046200c  e2 0d 9f 3c  STR Q2, [X15,#-16]!
0x00462010  e1 0d 9f 3c  STR Q1, [X15,#-16]!
0x00462014  e0 0d 9f 3c  STR Q0, [X15,#-16]!
0x00462018  e0 03 0f aa  MOV X0, X15
0x0046201c  01 00 80 d2  MOV X1, #0x0
0x00462020  ef ed 7c 92  AND X15, X15, #0xfffffffffffffff0
0x00462024  f4 03 00 91  MOV X20, SP
0x00462028  f9 03 0f aa  MOV X25, X15
0x0046202c  ef ed 7c 92  AND X15, X15, #0xfffffffffffffff0
0x00462030  ff 01 00 91  MOV SP, X15
0x00462034  50 4b 42 f9  LDR X16, [X26,#1168]
0x00462038  50 5b 00 f9  STR X16, [X26,#176]
0x0046203c  00 02 3f d6  BLR X16
0x00462040  10 01 80 d2  MOV X16, #0x8
0x00462044  50 5b 00 f9  STR X16, [X26,#176]
0x00462048  ef 03 19 aa  MOV X15, X25
0x0046204c  9f 02 00 91  MOV SP, X20
0x00462050  b8 03 40 f9  LDR X24, [X29]
0x00462054  ef 03 1d aa  MOV X15, X29
0x00462058  fd 79 c1 a8  LDP X29, X30, [X15],#16
0x0046205c  af 03 00 cb  SUB X15, X29, X0
0x00462060  fd 79 bf a9  STP X29, X30, [X15,#-16]!
0x00462064  fd 03 0f aa  MOV X29, X15
0x00462068  ef ed 7c 92  AND X15, X15, #0xfffffffffffffff0
0x0046206c  e0 03 1d aa  MOV X0, X29
0x00462070  f4 03 00 91  MOV X20, SP
0x00462074  f9 03 0f aa  MOV X25, X15
0x00462078  ef ed 7c 92  AND X15, X15, #0xfffffffffffffff0
0x0046207c  ff 01 00 91  MOV SP, X15
0x00462080  50 4f 42 f9  LDR X16, [X26,#1176]
0x00462084  50 5b 00 f9  STR X16, [X26,#176]
0x00462088  00 02 3f d6  BLR X16
0x0046208c  10 01 80 d2  MOV X16, #0x8
0x00462090  50 5b 00 f9  STR X16, [X26,#176]
0x00462094  ef 03 19 aa  MOV X15, X25
0x00462098  9f 02 00 91  MOV SP, X20
0x0046209c  b8 03 40 f9  LDR X24, [X29]
0x004620a0  ef 03 1d aa  MOV X15, X29
0x004620a4  fd 79 c1 a8  LDP X29, X30, [X15],#16
0x004620a8  fd 79 bf a9  STP X29, X30, [X15,#-16]!
0x004620ac  fd 03 0f aa  MOV X29, X15
0x004620b0  ff 8d 1f f8  STR XZR, [X15,#-8]!
0x004620b4  45 23 42 f9  LDR X5, [X26,#1088]
0x004620b8  04 00 80 d2  MOV X4, #0x0
0x004620bc  5e 0b 41 f9  LDR X30, [X26,#528]
0x004620c0  c0 03 3f d6  BLR X30
0x004620c4  e2 85 40 f8  LDR X2, [X15],#8
0x004620c8  42 7c 41 93  SBFX X2, X2, #1, #31
0x004620cc  ef 03 1d aa  MOV X15, X29
0x004620d0  fd 79 c1 a8  LDP X29, X30, [X15],#16
0x004620d4  ef 01 02 8b  ADD X15, X15, X2
0x004620d8  c0 03 5f d6  RET X30
0x004620dc  58 7f 40 f9  LDR X24, [X26,#248]
0x004620e0  fd 79 bf a9  STP X29, X30, [X15,#-16]!
0x004620e4  fd 03 0f aa  MOV X29, X15
0x004620e8  ff 8d 1f f8  STR XZR, [X15,#-8]!
0x004620ec  45 b3 41 f9  LDR X5, [X26,#864]
0x004620f0  04 00 80 d2  MOV X4, #0x0
0x004620f4  5e 0b 41 f9  LDR X30, [X26,#528]
0x004620f8  c0 03 3f d6  BLR X30
0x004620fc  f8 85 40 f8  LDR X24, [X15],#8
0x00462100  ef 03 1d aa  MOV X15, X29
0x00462104  fd 79 c1 a8  LDP X29, X30, [X15],#16
0x00462108  00 73 40 f8  LDUR X0, [X24,#7]
0x0046210c  00 00 1f d6  BR X0
0x00462110  a0 02 00 36  TBZ W0, #0, .+0x54
0x00462114  08 10 40 78  LDURH W8, [X0,#1]
0x00462118  a2 70 41 f8  LDUR X2, [X5,#23]
0x0046211c  a1 f0 41 f8  LDUR X1, [X5,#31]
0x00462120  08 f9 7f d3  LSL X8, X8, #1
0x00462124  03 f1 7d d3  LSL X3, X8, #3
0x00462128  63 00 08 cb  SUB X3, X3, X8
0x0046212c  63 00 01 8a  AND X3, X3, X1
0x00462130  50 08 03 8b  ADD X16, X2, X3, LSL #2
0x00462134  06 f2 40 b8  LDUR W6, [X16,#15]
0x00462138  df 00 08 6b  CMP W6, W8
0x0046213c  c1 00 00 54  B NE, .+0x18
0x00462140  00 32 41 b8  LDUR W0, [X16,#19]
0x00462144  00 80 1c 8b  ADD X0, X0, X28, LSL #32
0x00462148  01 70 40 f8  LDUR X1, [X0,#7]
0x0046214c  a4 f0 40 f8  LDUR X4, [X5,#15]
0x00462150  20 00 1f d6  BR X1
0x00462154  df 00 06 6a  TST W6, W6
0x00462158  a0 00 00 54  B EQ, .+0x14
0x0046215c  63 08 00 91  ADD X3, X3, #0x2
0x00462160  f3 ff ff 17  B .+0xffffffffffffffcc
0x00462164  c8 06 80 d2  MOV X8, #0x36
0x00462168  ec ff ff 17  B .+0xffffffffffffffb0
0x0046216c  58 cf 40 f9  LDR X24, [X26,#408]
0x00462170  fd 79 bf a9  STP X29, X30, [X15,#-16]!
0x00462174  fd 03 0f aa  MOV X29, X15
0x00462178  e0 8d 1f f8  STR X0, [X15,#-8]!
0x0046217c  ff 8d 1f f8  STR XZR, [X15,#-8]!
0x00462180  ff 8d 1f f8  STR XZR, [X15,#-8]!
0x00462184  e0 8d 1f f8  STR X0, [X15,#-8]!
0x00462188  45 43 42 f9  LDR X5, [X26,#1152]
0x0046218c  44 00 80 d2  MOV X4, #0x2
0x00462190  5e 0b 41 f9  LDR X30, [X26,#528]
0x00462194  c0 03 3f d6  BLR X30
0x00462198  ef 21 00 91  ADD X15, X15, #0x8
0x0046219c  f8 85 40 f8  LDR X24, [X15],#8
0x004621a0  e5 85 40 f8  LDR X5, [X15],#8
0x004621a4  e0 85 40 f8  LDR X0, [X15],#8
0x004621a8  ef 03 1d aa  MOV X15, X29
0x004621ac  fd 79 c1 a8  LDP X29, X30, [X15],#16
0x004621b0  01 73 40 f8  LDUR X1, [X24,#7]
0x004621b4  20 00 1f d6  BR X1
0x004621b8  a8 70 41 f8  LDUR X8, [X5,#23]
0x004621bc  a4 f0 40 f8  LDUR X4, [X5,#15]
0x004621c0  08 3d 00 91  ADD X8, X8, #0xf
0x004621c4  81 0d 80 d2  MOV X1, #0x6c
0x004621c8  60 00 00 36  TBZ W0, #0, .+0xc
0x004621cc  01 10 40 78  LDURH W1, [X0,#1]
0x004621d0  21 f8 7f d3  LSL X1, X1, #1
0x004621d4  02 01 40 b9  LDR W2, [X8]
0x004621d8  3f 00 02 6b  CMP W1, W2
0x004621dc  a0 00 00 54  B EQ, .+0x14
0x004621e0  5f 00 00 71  CMP W2, #0x0
0x004621e4  e0 00 00 54  B EQ, .+0x1c
0x004621e8  08 31 00 91  ADD X8, X8, #0xc
0x004621ec  fa ff ff 17  B .+0xffffffffffffffe8
0x004621f0  01 05 40 b9  LDR W1, [X8,#4]
0x004621f4  21 80 1c 8b  ADD X1, X1, X28, LSL #32
0x004621f8  21 70 40 f8  LDUR X1, [X1,#7]
0x004621fc  20 00 1f d6  BR X1
0x00462200  42 2b 40 f9  LDR X2, [X26,#80]
0x00462204  58 1c 40 f9  LDR X24, [X2,#56]
0x00462208  01 73 40 f8  LDUR X1, [X24,#7]
0x0046220c  20 00 1f d6  BR X1
0x00462210  c1 06 80 d2  MOV X1, #0x36
0x00462214  40 00 00 36  TBZ W0, #0, .+0x8
0x00462218  01 10 40 78  LDURH W1, [X0,#1]
0x0046221c  a2 70 41 78  LDURH W2, [X5,#23]
0x00462220  a3 90 41 78  LDURH W3, [X5,#25]
0x00462224  3f 00 02 eb  CMP X1, X2
0x00462228  cb 00 00 54  B LT, .+0x18
0x0046222c  3f 00 03 eb  CMP X1, X3
0x00462230  8c 00 00 54  B GT, .+0x10
0x00462234  a1 f0 40 f8  LDUR X1, [X5,#15]
0x00462238  b8 70 40 f8  LDUR X24, [X5,#7]
0x0046223c  20 00 1f d6  BR X1
0x00462240  fd 79 bf a9  STP X29, X30, [X15,#-16]!
0x00462244  fd 03 0f aa  MOV X29, X15
0x00462248  e0 8d 1f f8  STR X0, [X15,#-8]!
0x0046224c  ff 8d 1f f8  STR XZR, [X15,#-8]!
0x00462250  ff 8d 1f f8  STR XZR, [X15,#-8]!
0x00462254  e0 8d 1f f8  STR X0, [X15,#-8]!
0x00462258  45 43 42 f9  LDR X5, [X26,#1152]
0x0046225c  44 00 80 d2  MOV X4, #0x2
0x00462260  5e 0b 41 f9  LDR X30, [X26,#528]
0x00462264  c0 03 3f d6  BLR X30
0x00462268  ef 21 00 91  ADD X15, X15, #0x8
0x0046226c  f8 85 40 f8  LDR X24, [X15],#8
0x00462270  e5 85 40 f8  LDR X5, [X15],#8
0x00462274  e0 85 40 f8  LDR X0, [X15],#8
0x00462278  ef 03 1d aa  MOV X15, X29
0x0046227c  fd 79 c1 a8  LDP X29, X30, [X15],#16
0x00462280  01 f3 40 f8  LDUR X1, [X24,#15]
0x00462284  20 00 1f d6  BR X1
0x00462288  d0 06 80 d2  MOV X16, #0x36
0x0046228c  40 00 00 36  TBZ W0, #0, .+0x8
0x00462290  10 10 40 78  LDURH W16, [X0,#1]
0x00462294  b1 f0 40 f8  LDUR X17, [X5,#15]
0x00462298  a1 70 41 f8  LDUR X1, [X5,#23]
0x0046229c  1f 02 11 eb  CMP X16, X17
0x004622a0  41 00 00 54  B NE, .+0x8
0x004622a4  20 00 1f d6  BR X1
0x004622a8  50 2f 41 f9  LDR X16, [X26,#600]
0x004622ac  00 02 1f d6  BR X16
0x004622b0  58 cf 40 f9  LDR X24, [X26,#408]
0x004622b4  fd 79 bf a9  STP X29, X30, [X15,#-16]!
0x004622b8  fd 03 0f aa  MOV X29, X15
0x004622bc  e0 8d 1f f8  STR X0, [X15,#-8]!
0x004622c0  ff 8d 1f f8  STR XZR, [X15,#-8]!
0x004622c4  ff 8d 1f f8  STR XZR, [X15,#-8]!
0x004622c8  e0 8d 1f f8  STR X0, [X15,#-8]!
0x004622cc  45 43 42 f9  LDR X5, [X26,#1152]
0x004622d0  44 00 80 d2  MOV X4, #0x2
0x004622d4  5e 0b 41 f9  LDR X30, [X26,#528]
0x004622d8  c0 03 3f d6  BLR X30
0x004622dc  ef 21 00 91  ADD X15, X15, #0x8
0x004622e0  f8 85 40 f8  LDR X24, [X15],#8
0x004622e4  e5 85 40 f8  LDR X5, [X15],#8
0x004622e8  e0 85 40 f8  LDR X0, [X15],#8
0x004622ec  ef 03 1d aa  MOV X15, X29
0x004622f0  fd 79 c1 a8  LDP X29, X30, [X15],#16
0x004622f4  01 73 40 f8  LDUR X1, [X24,#7]
0x004622f8  20 00 1f d6  BR X1
0x004622fc  00 00 20 d4  BRK #0x0
0x00462300  ef 03 00 91  MOV X15, SP
0x00462304  70 38 40 f9  LDR X16, [X3,#112]
0x00462308  1f 06 40 d1  SUB SP, X16, #0x1, LSL #12
0x0046230c  fe 8d 1f f8  STR X30, [X15,#-8]!
0x00462310  fd 79 bf a9  STP X29, X30, [X15,#-16]!
0x00462314  fd 03 0f aa  MOV X29, X15
0x00462318  70 80 40 f9  LDR X16, [X3,#256]
0x0046231c  f0 8d 1f f8  STR X16, [X15,#-8]!
0x00462320  f3 8d 1f f8  STR X19, [X15,#-8]!
0x00462324  f4 8d 1f f8  STR X20, [X15,#-8]!
0x00462328  f5 8d 1f f8  STR X21, [X15,#-8]!
0x0046232c  f6 8d 1f f8  STR X22, [X15,#-8]!
0x00462330  f7 8d 1f f8  STR X23, [X15,#-8]!
0x00462334  f8 8d 1f f8  STR X24, [X15,#-8]!
0x00462338  f9 8d 1f f8  STR X25, [X15,#-8]!
0x0046233c  fa 8d 1f f8  STR X26, [X15,#-8]!
0x00462340  fb 8d 1f f8  STR X27, [X15,#-8]!
0x00462344  fc 8d 1f f8  STR X28, [X15,#-8]!
0x00462348  e8 8d 1f fc  STR D8, [X15,#-8]!
0x0046234c  e9 8d 1f fc  STR D9, [X15,#-8]!
0x00462350  ea 8d 1f fc  STR D10, [X15,#-8]!
0x00462354  eb 8d 1f fc  STR D11, [X15,#-8]!
0x00462358  ec 8d 1f fc  STR D12, [X15,#-8]!
0x0046235c  ed 8d 1f fc  STR D13, [X15,#-8]!
0x00462360  ee 8d 1f fc  STR D14, [X15,#-8]!
0x00462364  ef 8d 1f fc  STR D15, [X15,#-8]!
0x00462368  fa 03 03 aa  MOV X26, X3
0x0046236c  5c 23 40 f9  LDR X28, [X26,#64]
0x00462370  9c 7f 60 d3  LSL X28, X28, #32
0x00462374  56 67 40 f9  LDR X22, [X26,#200]
0x00462378  50 27 40 f9  LDR X16, [X26,#72]
0x0046237c  9c 83 50 aa  ORR X28, X28, X16, LSR #32
0x00462380  44 5b 40 f9  LDR X4, [X26,#176]
0x00462384  e4 8d 1f f8  STR X4, [X15,#-8]!
0x00462388  46 13 40 f9  LDR X6, [X26,#32]
0x0046238c  5f 13 00 f9  STR XZR, [X26,#32]
0x00462390  e6 8d 1f f8  STR X6, [X15,#-8]!
0x00462394  46 33 43 f9  LDR X6, [X26,#1632]
0x00462398  e6 8d 1f f8  STR X6, [X15,#-8]!
0x0046239c  06 00 80 d2  MOV X6, #0x0
0x004623a0  46 33 03 f9  STR X6, [X26,#1632]
0x004623a4  46 4b 40 f9  LDR X6, [X26,#144]
0x004623a8  5f 4b 00 f9  STR XZR, [X26,#144]
0x004623ac  e6 8d 1f f8  STR X6, [X15,#-8]!
0x004623b0  06 01 80 d2  MOV X6, #0x8
0x004623b4  46 5b 00 f9  STR X6, [X26,#176]
0x004623b8  24 04 40 f9  LDR X4, [X1,#8]
0x004623bc  85 30 41 b8  LDUR W5, [X4,#19]
0x004623c0  83 f0 40 b8  LDUR W3, [X4,#15]
0x004623c4  a5 7c 41 93  SBFX X5, X5, #1, #31
0x004623c8  7f 00 00 71  CMP W3, #0x0
0x004623cc  a5 04 85 9a  CINC X5, X5, NE
0x004623d0  42 04 40 f9  LDR X2, [X2,#8]
0x004623d4  42 3c 00 91  ADD X2, X2, #0xf
0x004623d8  bf 00 00 f1  CMP X5, #0x0
0x004623dc  20 01 00 54  B EQ, .+0x24
0x004623e0  01 00 80 d2  MOV X1, #0x0
0x004623e4  43 00 40 b9  LDR W3, [X2]
0x004623e8  63 80 1c 8b  ADD X3, X3, X28, LSL #32
0x004623ec  e3 8d 1f f8  STR X3, [X15,#-8]!
0x004623f0  21 04 00 91  ADD X1, X1, #0x1
0x004623f4  42 10 00 91  ADD X2, X2, #0x4
0x004623f8  3f 00 05 eb  CMP X1, X5
0x004623fc  4b ff ff 54  B LT, .+0xffffffffffffffe8
0x00462400  5b 17 43 f9  LDR X27, [X26,#1576]
0x00462404  7b 07 00 d1  SUB X27, X27, #0x1
0x00462408  55 2f 40 f9  LDR X21, [X26,#88]
0x0046240c  f8 03 1f aa  MOV X24, XZR
0x00462410  00 00 3f d6  BLR X0
0x00462414  af e3 02 d1  SUB X15, X29, #0xb8
0x00462418  e6 85 40 f8  LDR X6, [X15],#8
0x0046241c  46 4b 00 f9  STR X6, [X26,#144]
0x00462420  e6 85 40 f8  LDR X6, [X15],#8
0x00462424  46 33 03 f9  STR X6, [X26,#1632]
0x00462428  e6 85 40 f8  LDR X6, [X15],#8
0x0046242c  46 13 00 f9  STR X6, [X26,#32]
0x00462430  e4 85 40 f8  LDR X4, [X15],#8
0x00462434  44 5b 00 f9  STR X4, [X26,#176]
0x00462438  ef 85 40 fc  LDR D15, [X15],#8
0x0046243c  ee 85 40 fc  LDR D14, [X15],#8
0x00462440  ed 85 40 fc  LDR D13, [X15],#8
0x00462444  ec 85 40 fc  LDR D12, [X15],#8
0x00462448  eb 85 40 fc  LDR D11, [X15],#8
0x0046244c  ea 85 40 fc  LDR D10, [X15],#8
0x00462450  e9 85 40 fc  LDR D9, [X15],#8
0x00462454  e8 85 40 fc  LDR D8, [X15],#8
0x00462458  fc 85 40 f8  LDR X28, [X15],#8
0x0046245c  fb 85 40 f8  LDR X27, [X15],#8
0x00462460  fa 85 40 f8  LDR X26, [X15],#8
0x00462464  f9 85 40 f8  LDR X25, [X15],#8
0x00462468  f8 85 40 f8  LDR X24, [X15],#8
0x0046246c  f7 85 40 f8  LDR X23, [X15],#8
0x00462470  f6 85 40 f8  LDR X22, [X15],#8
0x00462474  f5 85 40 f8  LDR X21, [X15],#8
0x00462478  f4 85 40 f8  LDR X20, [X15],#8
0x0046247c  f3 85 40 f8  LDR X19, [X15],#8
0x00462480  ef 03 1d aa  MOV X15, X29
0x00462484  fd 79 c1 a8  LDP X29, X30, [X15],#16
0x00462488  ef 21 00 91  ADD X15, X15, #0x8
0x0046248c  ff 01 00 91  MOV SP, X15
0x00462490  c0 03 5f d6  RET X30
0x00462494  58 df 40 f9  LDR X24, [X26,#440]
0x00462498  fd 79 bf a9  STP X29, X30, [X15,#-16]!
0x0046249c  fd 03 0f aa  MOV X29, X15
0x004624a0  e4 8d 1f f8  STR X4, [X15,#-8]!
0x004624a4  ff 8d 1f f8  STR XZR, [X15,#-8]!
0x004624a8  e6 8d 1f f8  STR X6, [X15,#-8]!
0x004624ac  45 e7 41 f9  LDR X5, [X26,#968]
0x004624b0  24 00 80 d2  MOV X4, #0x1
0x004624b4  5e 0b 41 f9  LDR X30, [X26,#528]
0x004624b8  c0 03 3f d6  BLR X30
0x004624bc  e0 85 40 f8  LDR X0, [X15],#8
0x004624c0  e0 85 40 f8  LDR X0, [X15],#8
0x004624c4  e4 85 40 f8  LDR X4, [X15],#8
0x004624c8  18 b0 42 b8  LDUR W24, [X0,#43]
0x004624cc  18 83 1c 8b  ADD X24, X24, X28, LSL #32
0x004624d0  01 70 40 f8  LDUR X1, [X0,#7]
0x004624d4  ef 03 1d aa  MOV X15, X29
0x004624d8  fd 79 c1 a8  LDP X29, X30, [X15],#16
0x004624dc  20 00 1f d6  BR X1
0x004624e0  00 00 20 d4  BRK #0x0
0x004624e4  fd 79 bf a9  STP X29, X30, [X15,#-16]!
0x004624e8  fd 03 0f aa  MOV X29, X15
0x004624ec  e4 8d 1f f8  STR X4, [X15,#-8]!
0x004624f0  ff 8d 1f f8  STR XZR, [X15,#-8]!
0x004624f4  45 ef 41 f9  LDR X5, [X26,#984]
0x004624f8  04 00 80 d2  MOV X4, #0x0
0x004624fc  5e 0b 41 f9  LDR X30, [X26,#528]
0x00462500  c0 03 3f d6  BLR X30
0x00462504  f8 85 40 f8  LDR X24, [X15],#8
0x00462508  e4 85 40 f8  LDR X4, [X15],#8
0x0046250c  ef 03 1d aa  MOV X15, X29
0x00462510  fd 79 c1 a8  LDP X29, X30, [X15],#16
0x00462514  00 73 40 f8  LDUR X0, [X24,#7]
0x00462518  00 00 1f d6  BR X0
0x0046251c  00 00 20 d4  BRK #0x0
0x00462520  00 00 20 d4  BRK #0x0
0x00462524  19 00 00 14  B .+0x64
0x00462528  00 00 20 d4  BRK #0x0
0x0046252c  00 00 20 d4  BRK #0x0
0x00462530  00 00 20 d4  BRK #0x0
0x00462534  00 00 20 d4  BRK #0x0
0x00462538  00 00 20 d4  BRK #0x0
0x0046253c  00 00 20 d4  BRK #0x0
0x00462540  00 00 20 d4  BRK #0x0
0x00462544  00 00 20 d4  BRK #0x0
0x00462548  00 00 20 d4  BRK #0x0
0x0046254c  58 7b 40 f9  LDR X24, [X26,#240]
0x00462550  fd 79 bf a9  STP X29, X30, [X15,#-16]!
0x00462554  fd 03 0f aa  MOV X29, X15
0x00462558  e4 8d 1f f8  STR X4, [X15,#-8]!
0x0046255c  ff 8d 1f f8  STR XZR, [X15,#-8]!
0x00462560  45 ab 41 f9  LDR X5, [X26,#848]
0x00462564  04 00 80 d2  MOV X4, #0x0
0x00462568  5e 0b 41 f9  LDR X30, [X26,#528]
0x0046256c  c0 03 3f d6  BLR X30
0x00462570  f8 85 40 f8  LDR X24, [X15],#8
0x00462574  e4 85 40 f8  LDR X4, [X15],#8
0x00462578  ef 03 1d aa  MOV X15, X29
0x0046257c  fd 79 c1 a8  LDP X29, X30, [X15],#16
0x00462580  00 73 40 f8  LDUR X0, [X24,#7]
0x00462584  00 00 1f d6  BR X0
0x00462588  58 7b 40 f9  LDR X24, [X26,#240]
0x0046258c  fd 79 bf a9  STP X29, X30, [X15,#-16]!
0x00462590  fd 03 0f aa  MOV X29, X15
0x00462594  ff 8d 1f f8  STR XZR, [X15,#-8]!
0x00462598  e0 8d 1f f8  STR X0, [X15,#-8]!
0x0046259c  e5 8d 1f f8  STR X5, [X15,#-8]!
0x004625a0  45 af 41 f9  LDR X5, [X26,#856]
0x004625a4  44 00 80 d2  MOV X4, #0x2
0x004625a8  5e 0b 41 f9  LDR X30, [X26,#528]
0x004625ac  c0 03 3f d6  BLR X30
0x004625b0  e5 85 40 f8  LDR X5, [X15],#8
0x004625b4  e0 85 40 f8  LDR X0, [X15],#8
0x004625b8  f8 85 40 f8  LDR X24, [X15],#8
0x004625bc  ef 03 1d aa  MOV X15, X29
0x004625c0  fd 79 c1 a8  LDP X29, X30, [X15],#16
0x004625c4  01 f3 40 f8  LDUR X1, [X24,#15]
0x004625c8  20 00 1f d6  BR X1
0x004625cc  fd 79 bf a9  STP X29, X30, [X15,#-16]!
0x004625d0  fd 03 0f aa  MOV X29, X15
0x004625d4  5d 4b 00 f9  STR X29, [X26,#144]
0x004625d8  46 00 80 d2  MOV X6, #0x2
0x004625dc  46 33 03 f9  STR X6, [X26,#1632]
0x004625e0  45 5b 00 f9  STR X5, [X26,#176]
0x004625e4  ef 81 00 d1  SUB X15, X15, #0x20
0x004625e8  ef ed 7c 92  AND X15, X15, #0xfffffffffffffff0
0x004625ec  e0 03 1a aa  MOV X0, X26
0x004625f0  a3 43 00 91  ADD X3, X29, #0x10
0x004625f4  e0 01 00 f9  STR X0, [X15]
0x004625f8  e1 05 00 f9  STR X1, [X15,#8]
0x004625fc  e2 09 00 f9  STR X2, [X15,#16]
0x00462600  e3 0d 00 f9  STR X3, [X15,#24]
0x00462604  e0 03 0f aa  MOV X0, X15
0x00462608  f9 03 00 91  MOV X25, SP
0x0046260c  ff 01 00 91  MOV SP, X15
0x00462610  e1 03 05 aa  MOV X1, X5
0x00462614  5e 4b 41 f9  LDR X30, [X26,#656]
0x00462618  c0 03 3f d6  BLR X30
0x0046261c  ef 03 00 91  MOV X15, SP
0x00462620  3f 03 00 91  MOV SP, X25
0x00462624  5c 23 40 f9  LDR X28, [X26,#64]
0x00462628  9c 7f 60 d3  LSL X28, X28, #32
0x0046262c  56 67 40 f9  LDR X22, [X26,#200]
0x00462630  50 27 40 f9  LDR X16, [X26,#72]
0x00462634  9c 83 50 aa  ORR X28, X28, X16, LSR #32
0x00462638  02 01 80 d2  MOV X2, #0x8
0x0046263c  42 5b 00 f9  STR X2, [X26,#176]
0x00462640  02 00 80 d2  MOV X2, #0x0
0x00462644  42 33 03 f9  STR X2, [X26,#1632]
0x00462648  5f 4b 00 f9  STR XZR, [X26,#144]
0x0046264c  5b 17 43 f9  LDR X27, [X26,#1576]
0x00462650  7b 07 00 d1  SUB X27, X27, #0x1
0x00462654  55 2f 40 f9  LDR X21, [X26,#88]
0x00462658  ef 03 1d aa  MOV X15, X29
0x0046265c  fd 79 c1 a8  LDP X29, X30, [X15],#16
0x00462660  c0 03 5f d6  RET X30
0x00462664  fd 79 bf a9  STP X29, X30, [X15,#-16]!
0x00462668  fd 03 0f aa  MOV X29, X15
0x0046266c  5d 4b 00 f9  STR X29, [X26,#144]
0x00462670  46 00 80 d2  MOV X6, #0x2
0x00462674  46 33 03 f9  STR X6, [X26,#1632]
0x00462678  45 5b 00 f9  STR X5, [X26,#176]
0x0046267c  ef 81 00 d1  SUB X15, X15, #0x20
0x00462680  ef ed 7c 92  AND X15, X15, #0xfffffffffffffff0
0x00462684  e0 03 1a aa  MOV X0, X26
0x00462688  a3 43 00 91  ADD X3, X29, #0x10
0x0046268c  e0 01 00 f9  STR X0, [X15]
0x00462690  e1 05 00 f9  STR X1, [X15,#8]
0x00462694  e2 09 00 f9  STR X2, [X15,#16]
0x00462698  e3 0d 00 f9  STR X3, [X15,#24]
0x0046269c  e0 03 0f aa  MOV X0, X15
0x004626a0  f9 03 00 91  MOV X25, SP
0x004626a4  ff 01 00 91  MOV SP, X15
0x004626a8  e1 03 05 aa  MOV X1, X5
0x004626ac  5e 47 41 f9  LDR X30, [X26,#648]
0x004626b0  c0 03 3f d6  BLR X30
0x004626b4  ef 03 00 91  MOV X15, SP
0x004626b8  3f 03 00 91  MOV SP, X25
0x004626bc  5c 23 40 f9  LDR X28, [X26,#64]
0x004626c0  9c 7f 60 d3  LSL X28, X28, #32
0x004626c4  56 67 40 f9  LDR X22, [X26,#200]
0x004626c8  50 27 40 f9  LDR X16, [X26,#72]
0x004626cc  9c 83 50 aa  ORR X28, X28, X16, LSR #32
0x004626d0  02 01 80 d2  MOV X2, #0x8
0x004626d4  42 5b 00 f9  STR X2, [X26,#176]
0x004626d8  02 00 80 d2  MOV X2, #0x0
0x004626dc  42 33 03 f9  STR X2, [X26,#1632]
0x004626e0  5f 4b 00 f9  STR XZR, [X26,#144]
0x004626e4  5b 17 43 f9  LDR X27, [X26,#1576]
0x004626e8  7b 07 00 d1  SUB X27, X27, #0x1
0x004626ec  55 2f 40 f9  LDR X21, [X26,#88]
0x004626f0  ef 03 1d aa  MOV X15, X29
0x004626f4  fd 79 c1 a8  LDP X29, X30, [X15],#16
0x004626f8  c0 03 5f d6  RET X30
0x004626fc  fd 79 bf a9  STP X29, X30, [X15,#-16]!
0x00462700  fd 03 0f aa  MOV X29, X15
0x00462704  5d 4b 00 f9  STR X29, [X26,#144]
0x00462708  46 00 80 d2  MOV X6, #0x2
0x0046270c  46 33 03 f9  STR X6, [X26,#1632]
0x00462710  45 5b 00 f9  STR X5, [X26,#176]
0x00462714  ef 81 00 d1  SUB X15, X15, #0x20
0x00462718  ef ed 7c 92  AND X15, X15, #0xfffffffffffffff0
0x0046271c  e0 03 1a aa  MOV X0, X26
0x00462720  a3 43 00 91  ADD X3, X29, #0x10
0x00462724  e0 01 00 f9  STR X0, [X15]
0x00462728  e1 05 00 f9  STR X1, [X15,#8]
0x0046272c  e2 09 00 f9  STR X2, [X15,#16]
0x00462730  e3 0d 00 f9  STR X3, [X15,#24]
0x00462734  e0 03 0f aa  MOV X0, X15
0x00462738  f9 03 00 91  MOV X25, SP
0x0046273c  ff 01 00 91  MOV SP, X15
0x00462740  e1 03 05 aa  MOV X1, X5
0x00462744  5e 43 41 f9  LDR X30, [X26,#640]
0x00462748  c0 03 3f d6  BLR X30
0x0046274c  ef 03 00 91  MOV X15, SP
0x00462750  3f 03 00 91  MOV SP, X25
0x00462754  5c 23 40 f9  LDR X28, [X26,#64]
0x00462758  9c 7f 60 d3  LSL X28, X28, #32
0x0046275c  56 67 40 f9  LDR X22, [X26,#200]
0x00462760  50 27 40 f9  LDR X16, [X26,#72]
0x00462764  9c 83 50 aa  ORR X28, X28, X16, LSR #32
0x00462768  02 01 80 d2  MOV X2, #0x8
0x0046276c  42 5b 00 f9  STR X2, [X26,#176]
0x00462770  02 00 80 d2  MOV X2, #0x0
0x00462774  42 33 03 f9  STR X2, [X26,#1632]
0x00462778  5f 4b 00 f9  STR XZR, [X26,#144]
0x0046277c  5b 17 43 f9  LDR X27, [X26,#1576]
0x00462780  7b 07 00 d1  SUB X27, X27, #0x1
0x00462784  55 2f 40 f9  LDR X21, [X26,#88]
0x00462788  ef 03 1d aa  MOV X15, X29
0x0046278c  fd 79 c1 a8  LDP X29, X30, [X15],#16
0x00462790  c0 03 5f d6  RET X30
0x00462794  fd 79 bf a9  STP X29, X30, [X15,#-16]!
0x00462798  fd 03 0f aa  MOV X29, X15
0x0046279c  e4 8d 1f f8  STR X4, [X15,#-8]!
0x004627a0  e0 8d 1f f8  STR X0, [X15,#-8]!
0x004627a4  45 3f 42 f9  LDR X5, [X26,#1144]
0x004627a8  24 00 80 d2  MOV X4, #0x1
0x004627ac  5e 0b 41 f9  LDR X30, [X26,#528]
0x004627b0  c0 03 3f d6  BLR X30
0x004627b4  e0 85 40 f8  LDR X0, [X15],#8
0x004627b8  e4 85 40 f8  LDR X4, [X15],#8
0x004627bc  ef 03 1d aa  MOV X15, X29
0x004627c0  fd 79 c1 a8  LDP X29, X30, [X15],#16
0x004627c4  18 b0 42 b8  LDUR W24, [X0,#43]
0x004627c8  18 83 1c 8b  ADD X24, X24, X28, LSL #32
0x004627cc  02 70 40 f8  LDUR X2, [X0,#7]
0x004627d0  40 00 1f d6  BR X2
0x004627d4  58 87 40 f9  LDR X24, [X26,#264]
0x004627d8  fd 79 bf a9  STP X29, X30, [X15,#-16]!
0x004627dc  fd 03 0f aa  MOV X29, X15
0x004627e0  5d 4b 00 f9  STR X29, [X26,#144]
0x004627e4  48 00 80 d2  MOV X8, #0x2
0x004627e8  48 33 03 f9  STR X8, [X26,#1632]
0x004627ec  45 5b 00 f9  STR X5, [X26,#176]
0x004627f0  ef 81 00 d1  SUB X15, X15, #0x20
0x004627f4  ef ed 7c 92  AND X15, X15, #0xfffffffffffffff0
0x004627f8  e0 03 1a aa  MOV X0, X26
0x004627fc  e1 03 04 aa  MOV X1, X4
0x00462800  e2 0f 04 8b  ADD X2, XZR, X4, LSL #3
0x00462804  a2 03 02 8b  ADD X2, X29, X2
0x00462808  42 20 00 91  ADD X2, X2, #0x8
0x0046280c  43 20 00 91  ADD X3, X2, #0x8
0x00462810  e0 01 00 f9  STR X0, [X15]
0x00462814  e1 05 00 f9  STR X1, [X15,#8]
0x00462818  e2 09 00 f9  STR X2, [X15,#16]
0x0046281c  e3 0d 00 f9  STR X3, [X15,#24]
0x00462820  e0 03 0f aa  MOV X0, X15
0x00462824  f9 03 00 91  MOV X25, SP
0x00462828  ff 01 00 91  MOV SP, X15
0x0046282c  a0 00 3f d6  BLR X5
0x00462830  ef 03 00 91  MOV X15, SP
0x00462834  3f 03 00 91  MOV SP, X25
0x00462838  5c 23 40 f9  LDR X28, [X26,#64]
0x0046283c  9c 7f 60 d3  LSL X28, X28, #32
0x00462840  56 67 40 f9  LDR X22, [X26,#200]
0x00462844  50 27 40 f9  LDR X16, [X26,#72]
0x00462848  9c 83 50 aa  ORR X28, X28, X16, LSR #32
0x0046284c  02 01 80 d2  MOV X2, #0x8
0x00462850  42 5b 00 f9  STR X2, [X26,#176]
0x00462854  02 00 80 d2  MOV X2, #0x0
0x00462858  42 33 03 f9  STR X2, [X26,#1632]
0x0046285c  5f 4b 00 f9  STR XZR, [X26,#144]
0x00462860  5b 17 43 f9  LDR X27, [X26,#1576]
0x00462864  7b 07 00 d1  SUB X27, X27, #0x1
0x00462868  55 2f 40 f9  LDR X21, [X26,#88]
0x0046286c  ef 03 1d aa  MOV X15, X29
0x00462870  fd 79 c1 a8  LDP X29, X30, [X15],#16
0x00462874  00 00 80 d2  MOV X0, #0x0
0x00462878  c0 03 5f d6  RET X30
0x0046287c  a1 70 80 b8  LDURSW X1, [X5,#7]
0x00462880  e2 03 80 d2  MOV X2, #0x1f
0x00462884  42 08 01 8b  ADD X2, X2, X1, LSL #2
0x00462888  42 ec 7c 92  AND X2, X2, #0xfffffffffffffff0
0x0046288c  40 33 40 f9  LDR X0, [X26,#96]
0x00462890  43 00 00 8b  ADD X3, X2, X0
0x00462894  50 37 40 f9  LDR X16, [X26,#104]
0x00462898  7f 00 10 eb  CMP X3, X16
0x0046289c  e2 02 00 54  B CS, .+0x5c
0x004628a0  43 33 00 f9  STR X3, [X26,#96]
0x004628a4  00 04 00 91  ADD X0, X0, #0x1
0x004628a8  5f c0 3f f1  CMP X2, #0xff0
0x004628ac  50 ec 7c d3  LSL X16, X2, #4
0x004628b0  02 92 82 9a  CSEL X2, X16, X2, LS
0x004628b4  e2 83 82 9a  CSEL X2, XZR, X2, HI
0x004628b8  90 00 80 d2  MOV X16, #0x4
0x004628bc  70 03 a0 f2  MOVK X16, #0x1b, LSL #16
0x004628c0  42 00 10 aa  ORR X2, X2, X16
0x004628c4  02 f0 1f f8  STUR X2, [X0,#-1]
0x004628c8  01 70 00 b8  STUR W1, [X0,#7]
0x004628cc  a3 b0 40 b8  LDUR W3, [X5,#11]
0x004628d0  63 80 1c 8b  ADD X3, X3, X28, LSL #32
0x004628d4  03 b0 00 b8  STUR W3, [X0,#11]
0x004628d8  03 3c 00 91  ADD X3, X0, #0xf
0x004628dc  a4 3c 00 91  ADD X4, X5, #0xf
0x004628e0  21 04 00 f1  SUBS X1, X1, #0x1
0x004628e4  84 00 00 54  B MI, .+0x10
0x004628e8  85 78 a1 b8  LDRSW X5, [X4,X1,LSL #2]
0x004628ec  65 78 21 b8  STR W5, [X3,X1,LSL #2]
0x004628f0  81 ff ff 54  B NE, .+0xfffffffffffffff0
0x004628f4  c0 03 5f d6  RET X30
0x004628f8  fd 79 bf a9  STP X29, X30, [X15,#-16]!
0x004628fc  fd 03 0f aa  MOV X29, X15
0x00462900  e5 59 bf a9  STP X5, X22, [X15,#-16]!
0x00462904  45 a3 41 f9  LDR X5, [X26,#832]
0x00462908  24 00 80 d2  MOV X4, #0x1
0x0046290c  5e 0b 41 f9  LDR X30, [X26,#528]
0x00462910  c0 03 3f d6  BLR X30
0x00462914  e1 01 c1 a8  LDP X1, X0, [X15],#16
0x00462918  a0 01 18 37  TBNZ W0, #3, .+0x34
0x0046291c  e1 03 1a aa  MOV X1, X26
0x00462920  f4 03 00 91  MOV X20, SP
0x00462924  f9 03 0f aa  MOV X25, X15
0x00462928  ef ed 7c 92  AND X15, X15, #0xfffffffffffffff0
0x0046292c  ff 01 00 91  MOV SP, X15
0x00462930  50 5f 42 f9  LDR X16, [X26,#1208]
0x00462934  50 5b 00 f9  STR X16, [X26,#176]
0x00462938  00 02 3f d6  BLR X16
0x0046293c  10 01 80 d2  MOV X16, #0x8
0x00462940  50 5b 00 f9  STR X16, [X26,#176]
0x00462944  ef 03 19 aa  MOV X15, X25
0x00462948  9f 02 00 91  MOV SP, X20
0x0046294c  ef 03 1d aa  MOV X15, X29
0x00462950  fd 79 c1 a8  LDP X29, X30, [X15],#16
0x00462954  c0 03 5f d6  RET X30
0x00462958  40 07 46 a9  LDP X0, X1, [X26,#96]
0x0046295c  00 40 00 91  ADD X0, X0, #0x10
0x00462960  3f 00 00 eb  CMP X1, X0
0x00462964  09 01 00 54  B LS, .+0x20
0x00462968  40 33 00 f9  STR X0, [X26,#96]
0x0046296c  00 3c 00 d1  SUB X0, X0, #0xf
0x00462970  81 20 80 d2  MOV X1, #0x104
0x00462974  01 07 a0 f2  MOVK X1, #0x38, LSL #16
0x00462978  01 f0 1f f8  STUR X1, [X0,#-1]
0x0046297c  00 70 00 fc  STUR D0, [X0,#7]
0x00462980  c0 03 5f d6  RET X30
0x00462984  fd 79 bf a9  STP X29, X30, [X15,#-16]!
0x00462988  fd 03 0f aa  MOV X29, X15
0x0046298c  f6 8d 1f f8  STR X22, [X15,#-8]!
0x00462990  40 63 00 fd  STR D0, [X26,#192]
0x00462994  45 97 41 f9  LDR X5, [X26,#808]
0x00462998  04 00 80 d2  MOV X4, #0x0
0x0046299c  5e 0b 41 f9  LDR X30, [X26,#528]
0x004629a0  c0 03 3f d6  BLR X30
0x004629a4  e0 85 40 f8  LDR X0, [X15],#8
0x004629a8  ef 03 1d aa  MOV X15, X29
0x004629ac  fd 79 c1 a8  LDP X29, X30, [X15],#16
0x004629b0  c0 03 5f d6  RET X30
0x004629b4  82 20 80 d2  MOV X2, #0x104
0x004629b8  22 05 a0 f2  MOVK X2, #0x29, LSL #16
0x004629bc  44 17 41 f9  LDR X4, [X26,#552]
0x004629c0  80 00 1f d6  BR X4
0x004629c4  42 7c 10 53  LSR W2, W2, #16
0x004629c8  fd 79 bf a9  STP X29, X30, [X15,#-16]!
0x004629cc  fd 03 0f aa  MOV X29, X15
0x004629d0  40 43 43 f9  LDR X0, [X26,#1664]
0x004629d4  00 10 40 f9  LDR X0, [X0,#32]
0x004629d8  00 78 62 f8  LDR X0, [X0,X2,LSL #3]
0x004629dc  e0 59 bf a9  STP X0, X22, [X15,#-16]!
0x004629e0  e1 8d 1f f8  STR X1, [X15,#-8]!
0x004629e4  45 93 41 f9  LDR X5, [X26,#800]
0x004629e8  44 00 80 d2  MOV X4, #0x2
0x004629ec  5e 0b 41 f9  LDR X30, [X26,#528]
0x004629f0  c0 03 3f d6  BLR X30
0x004629f4  e0 09 40 f9  LDR X0, [X15,#16]
0x004629f8  a0 01 18 37  TBNZ W0, #3, .+0x34
0x004629fc  e1 03 1a aa  MOV X1, X26
0x00462a00  f4 03 00 91  MOV X20, SP
0x00462a04  f9 03 0f aa  MOV X25, X15
0x00462a08  ef ed 7c 92  AND X15, X15, #0xfffffffffffffff0
0x00462a0c  ff 01 00 91  MOV SP, X15
0x00462a10  50 5f 42 f9  LDR X16, [X26,#1208]
0x00462a14  50 5b 00 f9  STR X16, [X26,#176]
0x00462a18  00 02 3f d6  BLR X16
0x00462a1c  10 01 80 d2  MOV X16, #0x8
0x00462a20  50 5b 00 f9  STR X16, [X26,#176]
0x00462a24  ef 03 19 aa  MOV X15, X25
0x00462a28  9f 02 00 91  MOV SP, X20
0x00462a2c  ef 03 1d aa  MOV X15, X29
0x00462a30  fd 79 c1 a8  LDP X29, X30, [X15],#16
0x00462a34  c0 03 5f d6  RET X30
0x00462a38  44 3c 48 d3  UBFX X4, X2, #8, #8
0x00462a3c  84 ec 7c d3  LSL X4, X4, #4
0x00462a40  40 17 46 a9  LDP X0, X5, [X26,#96]
0x00462a44  03 00 04 8b  ADD X3, X0, X4
0x00462a48  bf 00 03 eb  CMP X5, X3
0x00462a4c  09 02 00 54  B LS, .+0x40
0x00462a50  43 33 00 f9  STR X3, [X26,#96]
0x00462a54  02 00 00 f9  STR X2, [X0]
0x00462a58  04 20 00 91  ADD X4, X0, #0x8
0x00462a5c  9f 00 03 eb  CMP X4, X3
0x00462a60  62 00 00 54  B CS, .+0xc
0x00462a64  96 44 00 b8  STR W22, [X4],#4
0x00462a68  fd ff ff 17  B .+0xfffffffffffffff4
0x00462a6c  44 7c 10 53  LSR W4, W2, #16
0x00462a70  45 43 43 f9  LDR X5, [X26,#1664]
0x00462a74  a5 10 40 f9  LDR X5, [X5,#32]
0x00462a78  a5 78 64 f8  LDR X5, [X5,X4,LSL #3]
0x00462a7c  a5 b0 84 b8  LDURSW X5, [X5,#75]
0x00462a80  01 78 25 b8  STR W1, [X0,X5,LSL #2]
0x00462a84  00 04 00 91  ADD X0, X0, #0x1
0x00462a88  c0 03 5f d6  RET X30
0x00462a8c  43 1f 41 f9  LDR X3, [X26,#568]
0x00462a90  60 00 1f d6  BR X3
0x00462a94  44 3c 48 d3  UBFX X4, X2, #8, #8
0x00462a98  84 ec 7c d3  LSL X4, X4, #4
0x00462a9c  40 17 46 a9  LDP X0, X5, [X26,#96]
0x00462aa0  03 00 04 8b  ADD X3, X0, X4
0x00462aa4  bf 00 03 eb  CMP X5, X3
0x00462aa8  49 01 00 54  B LS, .+0x28
0x00462aac  43 33 00 f9  STR X3, [X26,#96]
0x00462ab0  02 00 00 f9  STR X2, [X0]
0x00462ab4  04 20 00 91  ADD X4, X0, #0x8
0x00462ab8  9f 00 03 eb  CMP X4, X3
0x00462abc  62 00 00 54  B CS, .+0xc
0x00462ac0  96 44 00 b8  STR W22, [X4],#4
0x00462ac4  fd ff ff 17  B .+0xfffffffffffffff4
0x00462ac8  00 04 00 91  ADD X0, X0, #0x1
0x00462acc  c0 03 5f d6  RET X30
0x00462ad0  e1 03 16 aa  MOV X1, X22
0x00462ad4  43 1f 41 f9  LDR X3, [X26,#568]
0x00462ad8  60 00 1f d6  BR X3
0x00462adc  e2 03 80 d2  MOV X2, #0x1f
0x00462ae0  42 08 01 8b  ADD X2, X2, X1, LSL #2
0x00462ae4  42 ec 7c 92  AND X2, X2, #0xfffffffffffffff0
0x00462ae8  40 33 40 f9  LDR X0, [X26,#96]
0x00462aec  43 00 00 8b  ADD X3, X2, X0
0x00462af0  50 37 40 f9  LDR X16, [X26,#104]
0x00462af4  7f 00 10 eb  CMP X3, X16
0x00462af8  22 04 00 54  B CS, .+0x84
0x00462afc  43 33 00 f9  STR X3, [X26,#96]
0x00462b00  00 04 00 91  ADD X0, X0, #0x1
0x00462b04  5f c0 3f f1  CMP X2, #0xff0
0x00462b08  50 ec 7c d3  LSL X16, X2, #4
0x00462b0c  02 92 82 9a  CSEL X2, X16, X2, LS
0x00462b10  e2 83 82 9a  CSEL X2, XZR, X2, HI
0x00462b14  90 00 80 d2  MOV X16, #0x4
0x00462b18  70 03 a0 f2  MOVK X16, #0x1b, LSL #16
0x00462b1c  42 00 10 aa  ORR X2, X2, X16
0x00462b20  02 f0 1f f8  STUR X2, [X0,#-1]
0x00462b24  01 70 00 b8  STUR W1, [X0,#7]
0x00462b28  16 b0 00 b8  STUR W22, [X0,#11]
0x00462b2c  d6 01 00 36  TBZ W22, #0, .+0x38
0x00462b30  10 f0 5f 38  LDURB W16, [X0,#-1]
0x00462b34  d1 f2 5f 38  LDURB W17, [X22,#-1]
0x00462b38  30 0a 50 8a  AND X16, X17, X16, LSR #2
0x00462b3c  1f 82 5c ea  TST X16, X28, LSR #32
0x00462b40  20 01 00 54  B EQ, .+0x24
0x00462b44  fe 8d 1f f8  STR X30, [X15,#-8]!
0x00462b48  e0 09 bf a9  STP X0, X2, [X15,#-16]!
0x00462b4c  e2 03 00 aa  MOV X2, X0
0x00462b50  e0 03 16 aa  MOV X0, X22
0x00462b54  5e cb 42 f9  LDR X30, [X26,#1424]
0x00462b58  c0 03 3f d6  BLR X30
0x00462b5c  e0 09 c1 a8  LDP X0, X2, [X15],#16
0x00462b60  fe 85 40 f8  LDR X30, [X15],#8
0x00462b64  03 3c 00 91  ADD X3, X0, #0xf
0x00462b68  21 04 00 f1  SUBS X1, X1, #0x1
0x00462b6c  64 00 00 54  B MI, .+0xc
0x00462b70  76 78 21 b8  STR W22, [X3,X1,LSL #2]
0x00462b74  a1 ff ff 54  B NE, .+0xfffffffffffffff4
0x00462b78  c0 03 5f d6  RET X30
0x00462b7c  fd 79 bf a9  STP X29, X30, [X15,#-16]!
0x00462b80  fd 03 0f aa  MOV X29, X15
0x00462b84  21 f8 7f d3  LSL X1, X1, #1
0x00462b88  f6 8d 1f f8  STR X22, [X15,#-8]!
0x00462b8c  e1 8d 1f f8  STR X1, [X15,#-8]!
0x00462b90  45 8f 41 f9  LDR X5, [X26,#792]
0x00462b94  24 00 80 d2  MOV X4, #0x1
0x00462b98  5e 0b 41 f9  LDR X30, [X26,#528]
0x00462b9c  c0 03 3f d6  BLR X30
0x00462ba0  ef 21 00 91  ADD X15, X15, #0x8
0x00462ba4  e0 85 40 f8  LDR X0, [X15],#8
0x00462ba8  a0 01 18 37  TBNZ W0, #3, .+0x34
0x00462bac  e1 03 1a aa  MOV X1, X26
0x00462bb0  f4 03 00 91  MOV X20, SP
0x00462bb4  f9 03 0f aa  MOV X25, X15
0x00462bb8  ef ed 7c 92  AND X15, X15, #0xfffffffffffffff0
0x00462bbc  ff 01 00 91  MOV SP, X15
0x00462bc0  50 5f 42 f9  LDR X16, [X26,#1208]
0x00462bc4  50 5b 00 f9  STR X16, [X26,#176]
0x00462bc8  00 02 3f d6  BLR X16
0x00462bcc  10 01 80 d2  MOV X16, #0x8
0x00462bd0  50 5b 00 f9  STR X16, [X26,#176]
0x00462bd4  ef 03 19 aa  MOV X15, X25
0x00462bd8  9f 02 00 91  MOV SP, X20
0x00462bdc  ef 03 1d aa  MOV X15, X29
0x00462be0  fd 79 c1 a8  LDP X29, X30, [X15],#16
0x00462be4  c0 03 5f d6  RET X30
0x00462be8  40 13 46 a9  LDP X0, X4, [X26,#96]
0x00462bec  00 c0 00 91  ADD X0, X0, #0x30
0x00462bf0  9f 00 00 eb  CMP X4, X0
0x00462bf4  09 02 00 54  B LS, .+0x40
0x00462bf8  40 33 00 f9  STR X0, [X26,#96]
0x00462bfc  00 bc 00 d1  SUB X0, X0, #0x2f
0x00462c00  84 60 80 d2  MOV X4, #0x304
0x00462c04  64 06 a0 f2  MOVK X4, #0x33, LSL #16
0x00462c08  04 f0 1f f8  STUR X4, [X0,#-1]
0x00462c0c  e4 03 16 aa  MOV X4, X22
0x00462c10  04 70 00 b8  STUR W4, [X0,#7]
0x00462c14  04 b0 00 b8  STUR W4, [X0,#11]
0x00462c18  04 f0 00 b8  STUR W4, [X0,#15]
0x00462c1c  01 30 01 b8  STUR W1, [X0,#19]
0x00462c20  02 70 01 b8  STUR W2, [X0,#23]
0x00462c24  04 b0 01 b8  STUR W4, [X0,#27]
0x00462c28  24 70 40 f8  LDUR X4, [X1,#7]
0x00462c2c  04 f0 01 f8  STUR X4, [X0,#31]
0x00462c30  c0 03 5f d6  RET X30
0x00462c34  fd 79 bf a9  STP X29, X30, [X15,#-16]!
0x00462c38  fd 03 0f aa  MOV X29, X15
0x00462c3c  f6 8d 1f f8  STR X22, [X15,#-8]!
0x00462c40  e1 8d 1f f8  STR X1, [X15,#-8]!
0x00462c44  e2 8d 1f f8  STR X2, [X15,#-8]!
0x00462c48  45 8b 41 f9  LDR X5, [X26,#784]
0x00462c4c  44 00 80 d2  MOV X4, #0x2
0x00462c50  5e 0b 41 f9  LDR X30, [X26,#528]
0x00462c54  c0 03 3f d6  BLR X30
0x00462c58  e2 85 40 f8  LDR X2, [X15],#8
0x00462c5c  e1 85 40 f8  LDR X1, [X15],#8
0x00462c60  e0 85 40 f8  LDR X0, [X15],#8
0x00462c64  a0 01 18 37  TBNZ W0, #3, .+0x34
0x00462c68  e1 03 1a aa  MOV X1, X26
0x00462c6c  f4 03 00 91  MOV X20, SP
0x00462c70  f9 03 0f aa  MOV X25, X15
0x00462c74  ef ed 7c 92  AND X15, X15, #0xfffffffffffffff0
0x00462c78  ff 01 00 91  MOV SP, X15
0x00462c7c  50 5f 42 f9  LDR X16, [X26,#1208]
0x00462c80  50 5b 00 f9  STR X16, [X26,#176]
0x00462c84  00 02 3f d6  BLR X16
0x00462c88  10 01 80 d2  MOV X16, #0x8
0x00462c8c  50 5b 00 f9  STR X16, [X26,#176]
0x00462c90  ef 03 19 aa  MOV X15, X25
0x00462c94  9f 02 00 91  MOV SP, X20
0x00462c98  ef 03 1d aa  MOV X15, X29
0x00462c9c  fd 79 c1 a8  LDP X29, X30, [X15],#16
0x00462ca0  c0 03 5f d6  RET X30
0x00462ca4  40 07 46 a9  LDP X0, X1, [X26,#96]
0x00462ca8  00 40 00 91  ADD X0, X0, #0x10
0x00462cac  3f 00 00 eb  CMP X1, X0
0x00462cb0  e9 00 00 54  B LS, .+0x1c
0x00462cb4  40 33 00 f9  STR X0, [X26,#96]
0x00462cb8  00 3c 00 d1  SUB X0, X0, #0xf
0x00462cbc  81 20 80 d2  MOV X1, #0x104
0x00462cc0  e1 06 a0 f2  MOVK X1, #0x37, LSL #16
0x00462cc4  01 f0 1f f8  STUR X1, [X0,#-1]
0x00462cc8  c0 03 5f d6  RET X30
0x00462ccc  fe 8d 1f f8  STR X30, [X15,#-8]!
0x00462cd0  f8 65 bf a9  STP X24, X25, [X15,#-16]!
0x00462cd4  f4 5d bf a9  STP X20, X23, [X15,#-16]!
0x00462cd8  ee 4d bf a9  STP X14, X19, [X15,#-16]!
0x00462cdc  ec 35 bf a9  STP X12, X13, [X15,#-16]!
0x00462ce0  ea 2d bf a9  STP X10, X11, [X15,#-16]!
0x00462ce4  e8 25 bf a9  STP X8, X9, [X15,#-16]!
0x00462ce8  e6 1d bf a9  STP X6, X7, [X15,#-16]!
0x00462cec  e4 15 bf a9  STP X4, X5, [X15,#-16]!
0x00462cf0  e2 0d bf a9  STP X2, X3, [X15,#-16]!
0x00462cf4  e0 05 bf a9  STP X0, X1, [X15,#-16]!
0x00462cf8  58 b7 40 f9  LDR X24, [X26,#360]
0x00462cfc  fd 79 bf a9  STP X29, X30, [X15,#-16]!
0x00462d00  fd 03 0f aa  MOV X29, X15
0x00462d04  f6 8d 1f f8  STR X22, [X15,#-8]!
0x00462d08  45 73 41 f9  LDR X5, [X26,#736]
0x00462d0c  04 00 80 d2  MOV X4, #0x0
0x00462d10  5e 0b 41 f9  LDR X30, [X26,#528]
0x00462d14  c0 03 3f d6  BLR X30
0x00462d18  e0 85 40 f8  LDR X0, [X15],#8
0x00462d1c  a0 0b 00 f9  STR X0, [X29,#16]
0x00462d20  ef 03 1d aa  MOV X15, X29
0x00462d24  fd 79 c1 a8  LDP X29, X30, [X15],#16
0x00462d28  e0 05 c1 a8  LDP X0, X1, [X15],#16
0x00462d2c  e2 0d c1 a8  LDP X2, X3, [X15],#16
0x00462d30  e4 15 c1 a8  LDP X4, X5, [X15],#16
0x00462d34  e6 1d c1 a8  LDP X6, X7, [X15],#16
0x00462d38  e8 25 c1 a8  LDP X8, X9, [X15],#16
0x00462d3c  ea 2d c1 a8  LDP X10, X11, [X15],#16
0x00462d40  ec 35 c1 a8  LDP X12, X13, [X15],#16
0x00462d44  ee 4d c1 a8  LDP X14, X19, [X15],#16
0x00462d48  f4 5d c1 a8  LDP X20, X23, [X15],#16
0x00462d4c  f8 65 c1 a8  LDP X24, X25, [X15],#16
0x00462d50  ef 21 00 91  ADD X15, X15, #0x8
0x00462d54  c0 03 5f d6  RET X30
0x00462d58  40 07 46 a9  LDP X0, X1, [X26,#96]
0x00462d5c  00 40 00 91  ADD X0, X0, #0x10
0x00462d60  3f 00 00 eb  CMP X1, X0
0x00462d64  e9 00 00 54  B LS, .+0x1c
0x00462d68  40 33 00 f9  STR X0, [X26,#96]
0x00462d6c  00 3c 00 d1  SUB X0, X0, #0xf
0x00462d70  81 20 80 d2  MOV X1, #0x104
0x00462d74  e1 06 a0 f2  MOVK X1, #0x37, LSL #16
0x00462d78  01 f0 1f f8  STUR X1, [X0,#-1]
0x00462d7c  c0 03 5f d6  RET X30
0x00462d80  fe 8d 1f f8  STR X30, [X15,#-8]!
0x00462d84  ff 0d 9f 3c  STR Q31, [X15,#-16]!
0x00462d88  fe 0d 9f 3c  STR Q30, [X15,#-16]!
0x00462d8c  fd 0d 9f 3c  STR Q29, [X15,#-16]!
0x00462d90  fc 0d 9f 3c  STR Q28, [X15,#-16]!
0x00462d94  fb 0d 9f 3c  STR Q27, [X15,#-16]!
0x00462d98  fa 0d 9f 3c  STR Q26, [X15,#-16]!
0x00462d9c  f9 0d 9f 3c  STR Q25, [X15,#-16]!
0x00462da0  f8 0d 9f 3c  STR Q24, [X15,#-16]!
0x00462da4  f7 0d 9f 3c  STR Q23, [X15,#-16]!
0x00462da8  f6 0d 9f 3c  STR Q22, [X15,#-16]!
0x00462dac  f5 0d 9f 3c  STR Q21, [X15,#-16]!
0x00462db0  f4 0d 9f 3c  STR Q20, [X15,#-16]!
0x00462db4  f3 0d 9f 3c  STR Q19, [X15,#-16]!
0x00462db8  f2 0d 9f 3c  STR Q18, [X15,#-16]!
0x00462dbc  f1 0d 9f 3c  STR Q17, [X15,#-16]!
0x00462dc0  f0 0d 9f 3c  STR Q16, [X15,#-16]!
0x00462dc4  ef 0d 9f 3c  STR Q15, [X15,#-16]!
0x00462dc8  ee 0d 9f 3c  STR Q14, [X15,#-16]!
0x00462dcc  ed 0d 9f 3c  STR Q13, [X15,#-16]!
0x00462dd0  ec 0d 9f 3c  STR Q12, [X15,#-16]!
0x00462dd4  eb 0d 9f 3c  STR Q11, [X15,#-16]!
0x00462dd8  ea 0d 9f 3c  STR Q10, [X15,#-16]!
0x00462ddc  e9 0d 9f 3c  STR Q9, [X15,#-16]!
0x00462de0  e8 0d 9f 3c  STR Q8, [X15,#-16]!
0x00462de4  e7 0d 9f 3c  STR Q7, [X15,#-16]!
0x00462de8  e6 0d 9f 3c  STR Q6, [X15,#-16]!
0x00462dec  e5 0d 9f 3c  STR Q5, [X15,#-16]!
0x00462df0  e4 0d 9f 3c  STR Q4, [X15,#-16]!
0x00462df4  e3 0d 9f 3c  STR Q3, [X15,#-16]!
0x00462df8  e2 0d 9f 3c  STR Q2, [X15,#-16]!
0x00462dfc  e1 0d 9f 3c  STR Q1, [X15,#-16]!
0x00462e00  e0 0d 9f 3c  STR Q0, [X15,#-16]!
0x00462e04  f8 65 bf a9  STP X24, X25, [X15,#-16]!
0x00462e08  f4 5d bf a9  STP X20, X23, [X15,#-16]!
0x00462e0c  ee 4d bf a9  STP X14, X19, [X15,#-16]!
0x00462e10  ec 35 bf a9  STP X12, X13, [X15,#-16]!
0x00462e14  ea 2d bf a9  STP X10, X11, [X15,#-16]!
0x00462e18  e8 25 bf a9  STP X8, X9, [X15,#-16]!
0x00462e1c  e6 1d bf a9  STP X6, X7, [X15,#-16]!
0x00462e20  e4 15 bf a9  STP X4, X5, [X15,#-16]!
0x00462e24  e2 0d bf a9  STP X2, X3, [X15,#-16]!
0x00462e28  e0 05 bf a9  STP X0, X1, [X15,#-16]!
0x00462e2c  58 b3 40 f9  LDR X24, [X26,#352]
0x00462e30  fd 79 bf a9  STP X29, X30, [X15,#-16]!
0x00462e34  fd 03 0f aa  MOV X29, X15
0x00462e38  f6 8d 1f f8  STR X22, [X15,#-8]!
0x00462e3c  45 73 41 f9  LDR X5, [X26,#736]
0x00462e40  04 00 80 d2  MOV X4, #0x0
0x00462e44  5e 0b 41 f9  LDR X30, [X26,#528]
0x00462e48  c0 03 3f d6  BLR X30
0x00462e4c  e0 85 40 f8  LDR X0, [X15],#8
0x00462e50  a0 0b 00 f9  STR X0, [X29,#16]
0x00462e54  ef 03 1d aa  MOV X15, X29
0x00462e58  fd 79 c1 a8  LDP X29, X30, [X15],#16
0x00462e5c  e0 05 c1 a8  LDP X0, X1, [X15],#16
0x00462e60  e2 0d c1 a8  LDP X2, X3, [X15],#16
0x00462e64  e4 15 c1 a8  LDP X4, X5, [X15],#16
0x00462e68  e6 1d c1 a8  LDP X6, X7, [X15],#16
0x00462e6c  e8 25 c1 a8  LDP X8, X9, [X15],#16
0x00462e70  ea 2d c1 a8  LDP X10, X11, [X15],#16
0x00462e74  ec 35 c1 a8  LDP X12, X13, [X15],#16
0x00462e78  ee 4d c1 a8  LDP X14, X19, [X15],#16
0x00462e7c  f4 5d c1 a8  LDP X20, X23, [X15],#16
0x00462e80  f8 65 c1 a8  LDP X24, X25, [X15],#16
0x00462e84  e0 05 c1 3c  LDR Q0, [X15],#16
0x00462e88  e1 05 c1 3c  LDR Q1, [X15],#16
0x00462e8c  e2 05 c1 3c  LDR Q2, [X15],#16
0x00462e90  e3 05 c1 3c  LDR Q3, [X15],#16
0x00462e94  e4 05 c1 3c  LDR Q4, [X15],#16
0x00462e98  e5 05 c1 3c  LDR Q5, [X15],#16
0x00462e9c  e6 05 c1 3c  LDR Q6, [X15],#16
0x00462ea0  e7 05 c1 3c  LDR Q7, [X15],#16
0x00462ea4  e8 05 c1 3c  LDR Q8, [X15],#16
0x00462ea8  e9 05 c1 3c  LDR Q9, [X15],#16
0x00462eac  ea 05 c1 3c  LDR Q10, [X15],#16
0x00462eb0  eb 05 c1 3c  LDR Q11, [X15],#16
0x00462eb4  ec 05 c1 3c  LDR Q12, [X15],#16
0x00462eb8  ed 05 c1 3c  LDR Q13, [X15],#16
0x00462ebc  ee 05 c1 3c  LDR Q14, [X15],#16
0x00462ec0  ef 05 c1 3c  LDR Q15, [X15],#16
0x00462ec4  f0 05 c1 3c  LDR Q16, [X15],#16
0x00462ec8  f1 05 c1 3c  LDR Q17, [X15],#16
0x00462ecc  f2 05 c1 3c  LDR Q18, [X15],#16
0x00462ed0  f3 05 c1 3c  LDR Q19, [X15],#16
0x00462ed4  f4 05 c1 3c  LDR Q20, [X15],#16
0x00462ed8  f5 05 c1 3c  LDR Q21, [X15],#16
0x00462edc  f6 05 c1 3c  LDR Q22, [X15],#16
0x00462ee0  f7 05 c1 3c  LDR Q23, [X15],#16
0x00462ee4  f8 05 c1 3c  LDR Q24, [X15],#16
0x00462ee8  f9 05 c1 3c  LDR Q25, [X15],#16
0x00462eec  fa 05 c1 3c  LDR Q26, [X15],#16
0x00462ef0  fb 05 c1 3c  LDR Q27, [X15],#16
0x00462ef4  fc 05 c1 3c  LDR Q28, [X15],#16
0x00462ef8  fd 05 c1 3c  LDR Q29, [X15],#16
0x00462efc  fe 05 c1 3c  LDR Q30, [X15],#16
0x00462f00  ff 05 c1 3c  LDR Q31, [X15],#16
0x00462f04  ef 21 00 91  ADD X15, X15, #0x8
0x00462f08  c0 03 5f d6  RET X30
0x00462f0c  e2 03 04 aa  MOV X2, X4
0x00462f10  42 04 00 37  TBNZ W2, #0, .+0x88
0x00462f14  42 7c 41 93  SBFX X2, X2, #1, #31
0x00462f18  f1 33 7f b2  ORR X17, XZR, #0x3ffe
0x00462f1c  5f 00 11 6b  CMP W2, W17
0x00462f20  c8 03 00 54  B HI, .+0x78
0x00462f24  42 ec 7c d3  LSL X2, X2, #4
0x00462f28  42 9c 00 91  ADD X2, X2, #0x27
0x00462f2c  42 ec 7c 92  AND X2, X2, #0xfffffffffffffff0
0x00462f30  40 33 40 f9  LDR X0, [X26,#96]
0x00462f34  01 00 02 ab  ADDS X1, X0, X2
0x00462f38  02 03 00 54  B CS, .+0x60
0x00462f3c  46 37 40 f9  LDR X6, [X26,#104]
0x00462f40  3f 00 06 eb  CMP X1, X6
0x00462f44  a2 02 00 54  B CS, .+0x54
0x00462f48  41 33 00 f9  STR X1, [X26,#96]
0x00462f4c  00 04 00 91  ADD X0, X0, #0x1
0x00462f50  5f c0 3f f1  CMP X2, #0xff0
0x00462f54  42 ec 7c d3  LSL X2, X2, #4
0x00462f58  e2 83 82 9a  CSEL X2, XZR, X2, HI
0x00462f5c  90 00 80 d2  MOV X16, #0x4
0x00462f60  30 12 a0 f2  MOVK X16, #0x91, LSL #16
0x00462f64  42 00 10 aa  ORR X2, X2, X16
0x00462f68  02 f0 1f f8  STUR X2, [X0,#-1]
0x00462f6c  e2 03 04 aa  MOV X2, X4
0x00462f70  02 30 01 b8  STUR W2, [X0,#19]
0x00462f74  e3 03 1f aa  MOV X3, XZR
0x00462f78  02 5c 00 91  ADD X2, X0, #0x17
0x00462f7c  02 70 00 f8  STUR X2, [X0,#7]
0x00462f80  5f 00 01 eb  CMP X2, X1
0x00462f84  82 00 00 54  B CS, .+0x10
0x00462f88  43 00 00 f9  STR X3, [X2]
0x00462f8c  42 20 00 91  ADD X2, X2, #0x8
0x00462f90  fc ff ff 17  B .+0xfffffffffffffff0
0x00462f94  c0 03 5f d6  RET X30
0x00462f98  fd 79 bf a9  STP X29, X30, [X15,#-16]!
0x00462f9c  fd 03 0f aa  MOV X29, X15
0x00462fa0  ff 8d 1f f8  STR XZR, [X15,#-8]!
0x00462fa4  50 24 80 d2  MOV X16, #0x122
0x00462fa8  f0 8d 1f f8  STR X16, [X15,#-8]!
0x00462fac  e4 8d 1f f8  STR X4, [X15,#-8]!
0x00462fb0  45 87 41 f9  LDR X5, [X26,#776]
0x00462fb4  44 00 80 d2  MOV X4, #0x2
0x00462fb8  5e 0b 41 f9  LDR X30, [X26,#528]
0x00462fbc  c0 03 3f d6  BLR X30
0x00462fc0  ef 41 00 91  ADD X15, X15, #0x10
0x00462fc4  e0 85 40 f8  LDR X0, [X15],#8
0x00462fc8  ef 03 1d aa  MOV X15, X29
0x00462fcc  fd 79 c1 a8  LDP X29, X30, [X15],#16
0x00462fd0  c0 03 5f d6  RET X30
0x00462fd4  e2 03 04 aa  MOV X2, X4
0x00462fd8  42 04 00 37  TBNZ W2, #0, .+0x88
0x00462fdc  42 7c 41 93  SBFX X2, X2, #1, #31
0x00462fe0  f1 33 7f b2  ORR X17, XZR, #0x3ffe
0x00462fe4  5f 00 11 6b  CMP W2, W17
0x00462fe8  c8 03 00 54  B HI, .+0x78
0x00462fec  42 ec 7c d3  LSL X2, X2, #4
0x00462ff0  42 9c 00 91  ADD X2, X2, #0x27
0x00462ff4  42 ec 7c 92  AND X2, X2, #0xfffffffffffffff0
0x00462ff8  40 33 40 f9  LDR X0, [X26,#96]
0x00462ffc  01 00 02 ab  ADDS X1, X0, X2
0x00463000  02 03 00 54  B CS, .+0x60
0x00463004  46 37 40 f9  LDR X6, [X26,#104]
0x00463008  3f 00 06 eb  CMP X1, X6
0x0046300c  a2 02 00 54  B CS, .+0x54
0x00463010  41 33 00 f9  STR X1, [X26,#96]
0x00463014  00 04 00 91  ADD X0, X0, #0x1
0x00463018  5f c0 3f f1  CMP X2, #0xff0
0x0046301c  42 ec 7c d3  LSL X2, X2, #4
0x00463020  e2 83 82 9a  CSEL X2, XZR, X2, HI
0x00463024  90 00 80 d2  MOV X16, #0x4
0x00463028  d0 11 a0 f2  MOVK X16, #0x8e, LSL #16
0x0046302c  42 00 10 aa  ORR X2, X2, X16
0x00463030  02 f0 1f f8  STUR X2, [X0,#-1]
0x00463034  e2 03 04 aa  MOV X2, X4
0x00463038  02 30 01 b8  STUR W2, [X0,#19]
0x0046303c  e3 03 1f aa  MOV X3, XZR
0x00463040  02 5c 00 91  ADD X2, X0, #0x17
0x00463044  02 70 00 f8  STUR X2, [X0,#7]
0x00463048  5f 00 01 eb  CMP X2, X1
0x0046304c  82 00 00 54  B CS, .+0x10
0x00463050  43 00 00 f9  STR X3, [X2]
0x00463054  42 20 00 91  ADD X2, X2, #0x8
0x00463058  fc ff ff 17  B .+0xfffffffffffffff0
0x0046305c  c0 03 5f d6  RET X30
0x00463060  fd 79 bf a9  STP X29, X30, [X15,#-16]!
0x00463064  fd 03 0f aa  MOV X29, X15
0x00463068  ff 8d 1f f8  STR XZR, [X15,#-8]!
0x0046306c  90 23 80 d2  MOV X16, #0x11c
0x00463070  f0 8d 1f f8  STR X16, [X15,#-8]!
0x00463074  e4 8d 1f f8  STR X4, [X15,#-8]!
0x00463078  45 87 41 f9  LDR X5, [X26,#776]
0x0046307c  44 00 80 d2  MOV X4, #0x2
0x00463080  5e 0b 41 f9  LDR X30, [X26,#528]
0x00463084  c0 03 3f d6  BLR X30
0x00463088  ef 41 00 91  ADD X15, X15, #0x10
0x0046308c  e0 85 40 f8  LDR X0, [X15],#8
0x00463090  ef 03 1d aa  MOV X15, X29
0x00463094  fd 79 c1 a8  LDP X29, X30, [X15],#16
0x00463098  c0 03 5f d6  RET X30
0x0046309c  e2 03 04 aa  MOV X2, X4
0x004630a0  42 04 00 37  TBNZ W2, #0, .+0x88
0x004630a4  42 7c 41 93  SBFX X2, X2, #1, #31
0x004630a8  f1 33 7f b2  ORR X17, XZR, #0x3ffe
0x004630ac  5f 00 11 6b  CMP W2, W17
0x004630b0  c8 03 00 54  B HI, .+0x78
0x004630b4  42 ec 7c d3  LSL X2, X2, #4
0x004630b8  42 9c 00 91  ADD X2, X2, #0x27
0x004630bc  42 ec 7c 92  AND X2, X2, #0xfffffffffffffff0
0x004630c0  40 33 40 f9  LDR X0, [X26,#96]
0x004630c4  01 00 02 ab  ADDS X1, X0, X2
0x004630c8  02 03 00 54  B CS, .+0x60
0x004630cc  46 37 40 f9  LDR X6, [X26,#104]
0x004630d0  3f 00 06 eb  CMP X1, X6
0x004630d4  a2 02 00 54  B CS, .+0x54
0x004630d8  41 33 00 f9  STR X1, [X26,#96]
0x004630dc  00 04 00 91  ADD X0, X0, #0x1
0x004630e0  5f c0 3f f1  CMP X2, #0xff0
0x004630e4  42 ec 7c d3  LSL X2, X2, #4
0x004630e8  e2 83 82 9a  CSEL X2, XZR, X2, HI
0x004630ec  90 00 80 d2  MOV X16, #0x4
0x004630f0  70 11 a0 f2  MOVK X16, #0x8b, LSL #16
0x004630f4  42 00 10 aa  ORR X2, X2, X16
0x004630f8  02 f0 1f f8  STUR X2, [X0,#-1]
0x004630fc  e2 03 04 aa  MOV X2, X4
0x00463100  02 30 01 b8  STUR W2, [X0,#19]
0x00463104  e3 03 1f aa  MOV X3, XZR
0x00463108  02 5c 00 91  ADD X2, X0, #0x17
0x0046310c  02 70 00 f8  STUR X2, [X0,#7]
0x00463110  5f 00 01 eb  CMP X2, X1
0x00463114  82 00 00 54  B CS, .+0x10
0x00463118  43 00 00 f9  STR X3, [X2]
0x0046311c  42 20 00 91  ADD X2, X2, #0x8
0x00463120  fc ff ff 17  B .+0xfffffffffffffff0
0x00463124  c0 03 5f d6  RET X30
0x00463128  fd 79 bf a9  STP X29, X30, [X15,#-16]!
0x0046312c  fd 03 0f aa  MOV X29, X15
0x00463130  ff 8d 1f f8  STR XZR, [X15,#-8]!
0x00463134  d0 22 80 d2  MOV X16, #0x116
0x00463138  f0 8d 1f f8  STR X16, [X15,#-8]!
0x0046313c  e4 8d 1f f8  STR X4, [X15,#-8]!
0x00463140  45 87 41 f9  LDR X5, [X26,#776]
0x00463144  44 00 80 d2  MOV X4, #0x2
0x00463148  5e 0b 41 f9  LDR X30, [X26,#528]
0x0046314c  c0 03 3f d6  BLR X30
0x00463150  ef 41 00 91  ADD X15, X15, #0x10
0x00463154  e0 85 40 f8  LDR X0, [X15],#8
0x00463158  ef 03 1d aa  MOV X15, X29
0x0046315c  fd 79 c1 a8  LDP X29, X30, [X15],#16
0x00463160  c0 03 5f d6  RET X30
0x00463164  e2 03 04 aa  MOV X2, X4
0x00463168  42 04 00 37  TBNZ W2, #0, .+0x88
0x0046316c  42 7c 41 93  SBFX X2, X2, #1, #31
0x00463170  b1 ff 8f d2  MOV X17, #0x7ffd
0x00463174  5f 00 11 6b  CMP W2, W17
0x00463178  c8 03 00 54  B HI, .+0x78
0x0046317c  42 f0 7d d3  LSL X2, X2, #3
0x00463180  42 9c 00 91  ADD X2, X2, #0x27
0x00463184  42 ec 7c 92  AND X2, X2, #0xfffffffffffffff0
0x00463188  40 33 40 f9  LDR X0, [X26,#96]
0x0046318c  01 00 02 ab  ADDS X1, X0, X2
0x00463190  02 03 00 54  B CS, .+0x60
0x00463194  46 37 40 f9  LDR X6, [X26,#104]
0x00463198  3f 00 06 eb  CMP X1, X6
0x0046319c  a2 02 00 54  B CS, .+0x54
0x004631a0  41 33 00 f9  STR X1, [X26,#96]
0x004631a4  00 04 00 91  ADD X0, X0, #0x1
0x004631a8  5f c0 3f f1  CMP X2, #0xff0
0x004631ac  42 ec 7c d3  LSL X2, X2, #4
0x004631b0  e2 83 82 9a  CSEL X2, XZR, X2, HI
0x004631b4  90 00 80 d2  MOV X16, #0x4
0x004631b8  10 11 a0 f2  MOVK X16, #0x88, LSL #16
0x004631bc  42 00 10 aa  ORR X2, X2, X16
0x004631c0  02 f0 1f f8  STUR X2, [X0,#-1]
0x004631c4  e2 03 04 aa  MOV X2, X4
0x004631c8  02 30 01 b8  STUR W2, [X0,#19]
0x004631cc  e3 03 1f aa  MOV X3, XZR
0x004631d0  02 5c 00 91  ADD X2, X0, #0x17
0x004631d4  02 70 00 f8  STUR X2, [X0,#7]
0x004631d8  5f 00 01 eb  CMP X2, X1
0x004631dc  82 00 00 54  B CS, .+0x10
0x004631e0  43 00 00 f9  STR X3, [X2]
0x004631e4  42 20 00 91  ADD X2, X2, #0x8
0x004631e8  fc ff ff 17  B .+0xfffffffffffffff0
0x004631ec  c0 03 5f d6  RET X30
0x004631f0  fd 79 bf a9  STP X29, X30, [X15,#-16]!
0x004631f4  fd 03 0f aa  MOV X29, X15
0x004631f8  ff 8d 1f f8  STR XZR, [X15,#-8]!
0x004631fc  10 22 80 d2  MOV X16, #0x110
0x00463200  f0 8d 1f f8  STR X16, [X15,#-8]!
0x00463204  e4 8d 1f f8  STR X4, [X15,#-8]!
0x00463208  45 87 41 f9  LDR X5, [X26,#776]
0x0046320c  44 00 80 d2  MOV X4, #0x2
0x00463210  5e 0b 41 f9  LDR X30, [X26,#528]
0x00463214  c0 03 3f d6  BLR X30
0x00463218  ef 41 00 91  ADD X15, X15, #0x10
0x0046321c  e0 85 40 f8  LDR X0, [X15],#8
0x00463220  ef 03 1d aa  MOV X15, X29
0x00463224  fd 79 c1 a8  LDP X29, X30, [X15],#16
0x00463228  c0 03 5f d6  RET X30
0x0046322c  e2 03 04 aa  MOV X2, X4
0x00463230  42 04 00 37  TBNZ W2, #0, .+0x88
0x00463234  42 7c 41 93  SBFX X2, X2, #1, #31
0x00463238  51 ff 9f d2  MOV X17, #0xfffa
0x0046323c  5f 00 11 6b  CMP W2, W17
0x00463240  c8 03 00 54  B HI, .+0x78
0x00463244  42 f4 7e d3  LSL X2, X2, #2
0x00463248  42 9c 00 91  ADD X2, X2, #0x27
0x0046324c  42 ec 7c 92  AND X2, X2, #0xfffffffffffffff0
0x00463250  40 33 40 f9  LDR X0, [X26,#96]
0x00463254  01 00 02 ab  ADDS X1, X0, X2
0x00463258  02 03 00 54  B CS, .+0x60
0x0046325c  46 37 40 f9  LDR X6, [X26,#104]
0x00463260  3f 00 06 eb  CMP X1, X6
0x00463264  a2 02 00 54  B CS, .+0x54
0x00463268  41 33 00 f9  STR X1, [X26,#96]
0x0046326c  00 04 00 91  ADD X0, X0, #0x1
0x00463270  5f c0 3f f1  CMP X2, #0xff0
0x00463274  42 ec 7c d3  LSL X2, X2, #4
0x00463278  e2 83 82 9a  CSEL X2, XZR, X2, HI
0x0046327c  90 00 80 d2  MOV X16, #0x4
0x00463280  b0 10 a0 f2  MOVK X16, #0x85, LSL #16
0x00463284  42 00 10 aa  ORR X2, X2, X16
0x00463288  02 f0 1f f8  STUR X2, [X0,#-1]
0x0046328c  e2 03 04 aa  MOV X2, X4
0x00463290  02 30 01 b8  STUR W2, [X0,#19]
0x00463294  e3 03 1f aa  MOV X3, XZR
0x00463298  02 5c 00 91  ADD X2, X0, #0x17
0x0046329c  02 70 00 f8  STUR X2, [X0,#7]
0x004632a0  5f 00 01 eb  CMP X2, X1
0x004632a4  82 00 00 54  B CS, .+0x10
0x004632a8  43 00 00 f9  STR X3, [X2]
0x004632ac  42 20 00 91  ADD X2, X2, #0x8
0x004632b0  fc ff ff 17  B .+0xfffffffffffffff0
0x004632b4  c0 03 5f d6  RET X30
0x004632b8  fd 79 bf a9  STP X29, X30, [X15,#-16]!
0x004632bc  fd 03 0f aa  MOV X29, X15
0x004632c0  ff 8d 1f f8  STR XZR, [X15,#-8]!
0x004632c4  50 21 80 d2  MOV X16, #0x10a
0x004632c8  f0 8d 1f f8  STR X16, [X15,#-8]!
0x004632cc  e4 8d 1f f8  STR X4, [X15,#-8]!
0x004632d0  45 87 41 f9  LDR X5, [X26,#776]
0x004632d4  44 00 80 d2  MOV X4, #0x2
0x004632d8  5e 0b 41 f9  LDR X30, [X26,#528]
0x004632dc  c0 03 3f d6  BLR X30
0x004632e0  ef 41 00 91  ADD X15, X15, #0x10
0x004632e4  e0 85 40 f8  LDR X0, [X15],#8
0x004632e8  ef 03 1d aa  MOV X15, X29
0x004632ec  fd 79 c1 a8  LDP X29, X30, [X15],#16
0x004632f0  c0 03 5f d6  RET X30
0x004632f4  e2 03 04 aa  MOV X2, X4
0x004632f8  42 04 00 37  TBNZ W2, #0, .+0x88
0x004632fc  42 7c 41 93  SBFX X2, X2, #1, #31
0x00463300  b1 ff 8f d2  MOV X17, #0x7ffd
0x00463304  5f 00 11 6b  CMP W2, W17
0x00463308  c8 03 00 54  B HI, .+0x78
0x0046330c  42 f0 7d d3  LSL X2, X2, #3
0x00463310  42 9c 00 91  ADD X2, X2, #0x27
0x00463314  42 ec 7c 92  AND X2, X2, #0xfffffffffffffff0
0x00463318  40 33 40 f9  LDR X0, [X26,#96]
0x0046331c  01 00 02 ab  ADDS X1, X0, X2
0x00463320  02 03 00 54  B CS, .+0x60
0x00463324  46 37 40 f9  LDR X6, [X26,#104]
0x00463328  3f 00 06 eb  CMP X1, X6
0x0046332c  a2 02 00 54  B CS, .+0x54
0x00463330  41 33 00 f9  STR X1, [X26,#96]
0x00463334  00 04 00 91  ADD X0, X0, #0x1
0x00463338  5f c0 3f f1  CMP X2, #0xff0
0x0046333c  42 ec 7c d3  LSL X2, X2, #4
0x00463340  e2 83 82 9a  CSEL X2, XZR, X2, HI
0x00463344  90 00 80 d2  MOV X16, #0x4
0x00463348  50 10 a0 f2  MOVK X16, #0x82, LSL #16
0x0046334c  42 00 10 aa  ORR X2, X2, X16
0x00463350  02 f0 1f f8  STUR X2, [X0,#-1]
0x00463354  e2 03 04 aa  MOV X2, X4
0x00463358  02 30 01 b8  STUR W2, [X0,#19]
0x0046335c  e3 03 1f aa  MOV X3, XZR
0x00463360  02 5c 00 91  ADD X2, X0, #0x17
0x00463364  02 70 00 f8  STUR X2, [X0,#7]
0x00463368  5f 00 01 eb  CMP X2, X1
0x0046336c  82 00 00 54  B CS, .+0x10
0x00463370  43 00 00 f9  STR X3, [X2]
0x00463374  42 20 00 91  ADD X2, X2, #0x8
0x00463378  fc ff ff 17  B .+0xfffffffffffffff0
0x0046337c  c0 03 5f d6  RET X30
0x00463380  fd 79 bf a9  STP X29, X30, [X15,#-16]!
0x00463384  fd 03 0f aa  MOV X29, X15
0x00463388  ff 8d 1f f8  STR XZR, [X15,#-8]!
0x0046338c  90 20 80 d2  MOV X16, #0x104
0x00463390  f0 8d 1f f8  STR X16, [X15,#-8]!
0x00463394  e4 8d 1f f8  STR X4, [X15,#-8]!
0x00463398  45 87 41 f9  LDR X5, [X26,#776]
0x0046339c  44 00 80 d2  MOV X4, #0x2
0x004633a0  5e 0b 41 f9  LDR X30, [X26,#528]
0x004633a4  c0 03 3f d6  BLR X30
0x004633a8  ef 41 00 91  ADD X15, X15, #0x10
0x004633ac  e0 85 40 f8  LDR X0, [X15],#8
0x004633b0  ef 03 1d aa  MOV X15, X29
0x004633b4  fd 79 c1 a8  LDP X29, X30, [X15],#16
0x004633b8  c0 03 5f d6  RET X30
0x004633bc  e2 03 04 aa  MOV X2, X4
0x004633c0  42 04 00 37  TBNZ W2, #0, .+0x88
0x004633c4  42 7c 41 93  SBFX X2, X2, #1, #31
0x004633c8  b1 ff 8f d2  MOV X17, #0x7ffd
0x004633cc  5f 00 11 6b  CMP W2, W17
0x004633d0  c8 03 00 54  B HI, .+0x78
0x004633d4  42 f0 7d d3  LSL X2, X2, #3
0x004633d8  42 9c 00 91  ADD X2, X2, #0x27
0x004633dc  42 ec 7c 92  AND X2, X2, #0xfffffffffffffff0
0x004633e0  40 33 40 f9  LDR X0, [X26,#96]
0x004633e4  01 00 02 ab  ADDS X1, X0, X2
0x004633e8  02 03 00 54  B CS, .+0x60
0x004633ec  46 37 40 f9  LDR X6, [X26,#104]
0x004633f0  3f 00 06 eb  CMP X1, X6
0x004633f4  a2 02 00 54  B CS, .+0x54
0x004633f8  41 33 00 f9  STR X1, [X26,#96]
0x004633fc  00 04 00 91  ADD X0, X0, #0x1
0x00463400  5f c0 3f f1  CMP X2, #0xff0
0x00463404  42 ec 7c d3  LSL X2, X2, #4
0x00463408  e2 83 82 9a  CSEL X2, XZR, X2, HI
0x0046340c  90 00 80 d2  MOV X16, #0x4
0x00463410  f0 0f a0 f2  MOVK X16, #0x7f, LSL #16
0x00463414  42 00 10 aa  ORR X2, X2, X16
0x00463418  02 f0 1f f8  STUR X2, [X0,#-1]
0x0046341c  e2 03 04 aa  MOV X2, X4
0x00463420  02 30 01 b8  STUR W2, [X0,#19]
0x00463424  e3 03 1f aa  MOV X3, XZR
0x00463428  02 5c 00 91  ADD X2, X0, #0x17
0x0046342c  02 70 00 f8  STUR X2, [X0,#7]
0x00463430  5f 00 01 eb  CMP X2, X1
0x00463434  82 00 00 54  B CS, .+0x10
0x00463438  43 00 00 f9  STR X3, [X2]
0x0046343c  42 20 00 91  ADD X2, X2, #0x8
0x00463440  fc ff ff 17  B .+0xfffffffffffffff0
0x00463444  c0 03 5f d6  RET X30
0x00463448  fd 79 bf a9  STP X29, X30, [X15,#-16]!
0x0046344c  fd 03 0f aa  MOV X29, X15
0x00463450  ff 8d 1f f8  STR XZR, [X15,#-8]!
0x00463454  d0 1f 80 d2  MOV X16, #0xfe
0x00463458  f0 8d 1f f8  STR X16, [X15,#-8]!
0x0046345c  e4 8d 1f f8  STR X4, [X15,#-8]!
0x00463460  45 87 41 f9  LDR X5, [X26,#776]
0x00463464  44 00 80 d2  MOV X4, #0x2
0x00463468  5e 0b 41 f9  LDR X30, [X26,#528]
0x0046346c  c0 03 3f d6  BLR X30
0x00463470  ef 41 00 91  ADD X15, X15, #0x10
0x00463474  e0 85 40 f8  LDR X0, [X15],#8
0x00463478  ef 03 1d aa  MOV X15, X29
0x0046347c  fd 79 c1 a8  LDP X29, X30, [X15],#16
0x00463480  c0 03 5f d6  RET X30
0x00463484  e2 03 04 aa  MOV X2, X4
0x00463488  42 04 00 37  TBNZ W2, #0, .+0x88
0x0046348c  42 7c 41 93  SBFX X2, X2, #1, #31
0x00463490  51 ff 9f d2  MOV X17, #0xfffa
0x00463494  5f 00 11 6b  CMP W2, W17
0x00463498  c8 03 00 54  B HI, .+0x78
0x0046349c  42 f4 7e d3  LSL X2, X2, #2
0x004634a0  42 9c 00 91  ADD X2, X2, #0x27
0x004634a4  42 ec 7c 92  AND X2, X2, #0xfffffffffffffff0
0x004634a8  40 33 40 f9  LDR X0, [X26,#96]
0x004634ac  01 00 02 ab  ADDS X1, X0, X2
0x004634b0  02 03 00 54  B CS, .+0x60
0x004634b4  46 37 40 f9  LDR X6, [X26,#104]
0x004634b8  3f 00 06 eb  CMP X1, X6
0x004634bc  a2 02 00 54  B CS, .+0x54
0x004634c0  41 33 00 f9  STR X1, [X26,#96]
0x004634c4  00 04 00 91  ADD X0, X0, #0x1
0x004634c8  5f c0 3f f1  CMP X2, #0xff0
0x004634cc  42 ec 7c d3  LSL X2, X2, #4
0x004634d0  e2 83 82 9a  CSEL X2, XZR, X2, HI
0x004634d4  90 00 80 d2  MOV X16, #0x4
0x004634d8  90 0f a0 f2  MOVK X16, #0x7c, LSL #16
0x004634dc  42 00 10 aa  ORR X2, X2, X16
0x004634e0  02 f0 1f f8  STUR X2, [X0,#-1]
0x004634e4  e2 03 04 aa  MOV X2, X4
0x004634e8  02 30 01 b8  STUR W2, [X0,#19]
0x004634ec  e3 03 1f aa  MOV X3, XZR
0x004634f0  02 5c 00 91  ADD X2, X0, #0x17
0x004634f4  02 70 00 f8  STUR X2, [X0,#7]
0x004634f8  5f 00 01 eb  CMP X2, X1
0x004634fc  82 00 00 54  B CS, .+0x10
0x00463500  43 00 00 f9  STR X3, [X2]
0x00463504  42 20 00 91  ADD X2, X2, #0x8
0x00463508  fc ff ff 17  B .+0xfffffffffffffff0
0x0046350c  c0 03 5f d6  RET X30
0x00463510  fd 79 bf a9  STP X29, X30, [X15,#-16]!
0x00463514  fd 03 0f aa  MOV X29, X15
0x00463518  ff 8d 1f f8  STR XZR, [X15,#-8]!
0x0046351c  10 1f 80 d2  MOV X16, #0xf8
0x00463520  f0 8d 1f f8  STR X16, [X15,#-8]!
0x00463524  e4 8d 1f f8  STR X4, [X15,#-8]!
0x00463528  45 87 41 f9  LDR X5, [X26,#776]
0x0046352c  44 00 80 d2  MOV X4, #0x2
0x00463530  5e 0b 41 f9  LDR X30, [X26,#528]
0x00463534  c0 03 3f d6  BLR X30
0x00463538  ef 41 00 91  ADD X15, X15, #0x10
0x0046353c  e0 85 40 f8  LDR X0, [X15],#8
0x00463540  ef 03 1d aa  MOV X15, X29
0x00463544  fd 79 c1 a8  LDP X29, X30, [X15],#16
0x00463548  c0 03 5f d6  RET X30
0x0046354c  e2 03 04 aa  MOV X2, X4
0x00463550  42 04 00 37  TBNZ W2, #0, .+0x88
0x00463554  42 7c 41 93  SBFX X2, X2, #1, #31
0x00463558  51 ff 9f d2  MOV X17, #0xfffa
0x0046355c  5f 00 11 6b  CMP W2, W17
0x00463560  c8 03 00 54  B HI, .+0x78
0x00463564  42 f4 7e d3  LSL X2, X2, #2
0x00463568  42 9c 00 91  ADD X2, X2, #0x27
0x0046356c  42 ec 7c 92  AND X2, X2, #0xfffffffffffffff0
0x00463570  40 33 40 f9  LDR X0, [X26,#96]
0x00463574  01 00 02 ab  ADDS X1, X0, X2
0x00463578  02 03 00 54  B CS, .+0x60
0x0046357c  46 37 40 f9  LDR X6, [X26,#104]
0x00463580  3f 00 06 eb  CMP X1, X6
0x00463584  a2 02 00 54  B CS, .+0x54
0x00463588  41 33 00 f9  STR X1, [X26,#96]
0x0046358c  00 04 00 91  ADD X0, X0, #0x1
0x00463590  5f c0 3f f1  CMP X2, #0xff0
0x00463594  42 ec 7c d3  LSL X2, X2, #4
0x00463598  e2 83 82 9a  CSEL X2, XZR, X2, HI
0x0046359c  90 00 80 d2  MOV X16, #0x4
0x004635a0  30 0f a0 f2  MOVK X16, #0x79, LSL #16
0x004635a4  42 00 10 aa  ORR X2, X2, X16
0x004635a8  02 f0 1f f8  STUR X2, [X0,#-1]
0x004635ac  e2 03 04 aa  MOV X2, X4
0x004635b0  02 30 01 b8  STUR W2, [X0,#19]
0x004635b4  e3 03 1f aa  MOV X3, XZR
0x004635b8  02 5c 00 91  ADD X2, X0, #0x17
0x004635bc  02 70 00 f8  STUR X2, [X0,#7]
0x004635c0  5f 00 01 eb  CMP X2, X1
0x004635c4  82 00 00 54  B CS, .+0x10
0x004635c8  43 00 00 f9  STR X3, [X2]
0x004635cc  42 20 00 91  ADD X2, X2, #0x8
0x004635d0  fc ff ff 17  B .+0xfffffffffffffff0
0x004635d4  c0 03 5f d6  RET X30
0x004635d8  fd 79 bf a9  STP X29, X30, [X15,#-16]!
0x004635dc  fd 03 0f aa  MOV X29, X15
0x004635e0  ff 8d 1f f8  STR XZR, [X15,#-8]!
0x004635e4  50 1e 80 d2  MOV X16, #0xf2
0x004635e8  f0 8d 1f f8  STR X16, [X15,#-8]!
0x004635ec  e4 8d 1f f8  STR X4, [X15,#-8]!
0x004635f0  45 87 41 f9  LDR X5, [X26,#776]
0x004635f4  44 00 80 d2  MOV X4, #0x2
0x004635f8  5e 0b 41 f9  LDR X30, [X26,#528]
0x004635fc  c0 03 3f d6  BLR X30
0x00463600  ef 41 00 91  ADD X15, X15, #0x10
0x00463604  e0 85 40 f8  LDR X0, [X15],#8
0x00463608  ef 03 1d aa  MOV X15, X29
0x0046360c  fd 79 c1 a8  LDP X29, X30, [X15],#16
0x00463610  c0 03 5f d6  RET X30
0x00463614  e2 03 04 aa  MOV X2, X4
0x00463618  62 04 00 37  TBNZ W2, #0, .+0x8c
0x0046361c  42 7c 41 93  SBFX X2, X2, #1, #31
0x00463620  91 fe 9f d2  MOV X17, #0xfff4
0x00463624  31 00 a0 f2  MOVK X17, #0x1, LSL #16
0x00463628  5f 00 11 6b  CMP W2, W17
0x0046362c  c8 03 00 54  B HI, .+0x78
0x00463630  42 f8 7f d3  LSL X2, X2, #1
0x00463634  42 9c 00 91  ADD X2, X2, #0x27
0x00463638  42 ec 7c 92  AND X2, X2, #0xfffffffffffffff0
0x0046363c  40 33 40 f9  LDR X0, [X26,#96]
0x00463640  01 00 02 ab  ADDS X1, X0, X2
0x00463644  02 03 00 54  B CS, .+0x60
0x00463648  46 37 40 f9  LDR X6, [X26,#104]
0x0046364c  3f 00 06 eb  CMP X1, X6
0x00463650  a2 02 00 54  B CS, .+0x54
0x00463654  41 33 00 f9  STR X1, [X26,#96]
0x00463658  00 04 00 91  ADD X0, X0, #0x1
0x0046365c  5f c0 3f f1  CMP X2, #0xff0
0x00463660  42 ec 7c d3  LSL X2, X2, #4
0x00463664  e2 83 82 9a  CSEL X2, XZR, X2, HI
0x00463668  90 00 80 d2  MOV X16, #0x4
0x0046366c  d0 0e a0 f2  MOVK X16, #0x76, LSL #16
0x00463670  42 00 10 aa  ORR X2, X2, X16
0x00463674  02 f0 1f f8  STUR X2, [X0,#-1]
0x00463678  e2 03 04 aa  MOV X2, X4
0x0046367c  02 30 01 b8  STUR W2, [X0,#19]
0x00463680  e3 03 1f aa  MOV X3, XZR
0x00463684  02 5c 00 91  ADD X2, X0, #0x17
0x00463688  02 70 00 f8  STUR X2, [X0,#7]
0x0046368c  5f 00 01 eb  CMP X2, X1
0x00463690  82 00 00 54  B CS, .+0x10
0x00463694  43 00 00 f9  STR X3, [X2]
0x00463698  42 20 00 91  ADD X2, X2, #0x8
0x0046369c  fc ff ff 17  B .+0xfffffffffffffff0
0x004636a0  c0 03 5f d6  RET X30
0x004636a4  fd 79 bf a9  STP X29, X30, [X15,#-16]!
0x004636a8  fd 03 0f aa  MOV X29, X15
0x004636ac  ff 8d 1f f8  STR XZR, [X15,#-8]!
0x004636b0  90 1d 80 d2  MOV X16, #0xec
0x004636b4  f0 8d 1f f8  STR X16, [X15,#-8]!
0x004636b8  e4 8d 1f f8  STR X4, [X15,#-8]!
0x004636bc  45 87 41 f9  LDR X5, [X26,#776]
0x004636c0  44 00 80 d2  MOV X4, #0x2
0x004636c4  5e 0b 41 f9  LDR X30, [X26,#528]
0x004636c8  c0 03 3f d6  BLR X30
0x004636cc  ef 41 00 91  ADD X15, X15, #0x10
0x004636d0  e0 85 40 f8  LDR X0, [X15],#8
0x004636d4  ef 03 1d aa  MOV X15, X29
0x004636d8  fd 79 c1 a8  LDP X29, X30, [X15],#16
0x004636dc  c0 03 5f d6  RET X30
0x004636e0  e2 03 04 aa  MOV X2, X4
0x004636e4  62 04 00 37  TBNZ W2, #0, .+0x8c
0x004636e8  42 7c 41 93  SBFX X2, X2, #1, #31
0x004636ec  91 fe 9f d2  MOV X17, #0xfff4
0x004636f0  31 00 a0 f2  MOVK X17, #0x1, LSL #16
0x004636f4  5f 00 11 6b  CMP W2, W17
0x004636f8  c8 03 00 54  B HI, .+0x78
0x004636fc  42 f8 7f d3  LSL X2, X2, #1
0x00463700  42 9c 00 91  ADD X2, X2, #0x27
0x00463704  42 ec 7c 92  AND X2, X2, #0xfffffffffffffff0
0x00463708  40 33 40 f9  LDR X0, [X26,#96]
0x0046370c  01 00 02 ab  ADDS X1, X0, X2
0x00463710  02 03 00 54  B CS, .+0x60
0x00463714  46 37 40 f9  LDR X6, [X26,#104]
0x00463718  3f 00 06 eb  CMP X1, X6
0x0046371c  a2 02 00 54  B CS, .+0x54
0x00463720  41 33 00 f9  STR X1, [X26,#96]
0x00463724  00 04 00 91  ADD X0, X0, #0x1
0x00463728  5f c0 3f f1  CMP X2, #0xff0
0x0046372c  42 ec 7c d3  LSL X2, X2, #4
0x00463730  e2 83 82 9a  CSEL X2, XZR, X2, HI
0x00463734  90 00 80 d2  MOV X16, #0x4
0x00463738  70 0e a0 f2  MOVK X16, #0x73, LSL #16
0x0046373c  42 00 10 aa  ORR X2, X2, X16
0x00463740  02 f0 1f f8  STUR X2, [X0,#-1]
0x00463744  e2 03 04 aa  MOV X2, X4
0x00463748  02 30 01 b8  STUR W2, [X0,#19]
0x0046374c  e3 03 1f aa  MOV X3, XZR
0x00463750  02 5c 00 91  ADD X2, X0, #0x17
0x00463754  02 70 00 f8  STUR X2, [X0,#7]
0x00463758  5f 00 01 eb  CMP X2, X1
0x0046375c  82 00 00 54  B CS, .+0x10
0x00463760  43 00 00 f9  STR X3, [X2]
0x00463764  42 20 00 91  ADD X2, X2, #0x8
0x00463768  fc ff ff 17  B .+0xfffffffffffffff0
0x0046376c  c0 03 5f d6  RET X30
0x00463770  fd 79 bf a9  STP X29, X30, [X15,#-16]!
0x00463774  fd 03 0f aa  MOV X29, X15
0x00463778  ff 8d 1f f8  STR XZR, [X15,#-8]!
0x0046377c  d0 1c 80 d2  MOV X16, #0xe6
0x00463780  f0 8d 1f f8  STR X16, [X15,#-8]!
0x00463784  e4 8d 1f f8  STR X4, [X15,#-8]!
0x00463788  45 87 41 f9  LDR X5, [X26,#776]
0x0046378c  44 00 80 d2  MOV X4, #0x2
0x00463790  5e 0b 41 f9  LDR X30, [X26,#528]
0x00463794  c0 03 3f d6  BLR X30
0x00463798  ef 41 00 91  ADD X15, X15, #0x10
0x0046379c  e0 85 40 f8  LDR X0, [X15],#8
0x004637a0  ef 03 1d aa  MOV X15, X29
0x004637a4  fd 79 c1 a8  LDP X29, X30, [X15],#16
0x004637a8  c0 03 5f d6  RET X30
0x004637ac  e2 03 04 aa  MOV X2, X4
0x004637b0  62 04 00 37  TBNZ W2, #0, .+0x8c
0x004637b4  42 7c 41 93  SBFX X2, X2, #1, #31
0x004637b8  11 fd 9f d2  MOV X17, #0xffe8
0x004637bc  71 00 a0 f2  MOVK X17, #0x3, LSL #16
0x004637c0  5f 00 11 6b  CMP W2, W17
0x004637c4  c8 03 00 54  B HI, .+0x78
0x004637c8  42 fc 40 d3  LSR X2, X2, #0
0x004637cc  42 9c 00 91  ADD X2, X2, #0x27
0x004637d0  42 ec 7c 92  AND X2, X2, #0xfffffffffffffff0
0x004637d4  40 33 40 f9  LDR X0, [X26,#96]
0x004637d8  01 00 02 ab  ADDS X1, X0, X2
0x004637dc  02 03 00 54  B CS, .+0x60
0x004637e0  46 37 40 f9  LDR X6, [X26,#104]
0x004637e4  3f 00 06 eb  CMP X1, X6
0x004637e8  a2 02 00 54  B CS, .+0x54
0x004637ec  41 33 00 f9  STR X1, [X26,#96]
0x004637f0  00 04 00 91  ADD X0, X0, #0x1
0x004637f4  5f c0 3f f1  CMP X2, #0xff0
0x004637f8  42 ec 7c d3  LSL X2, X2, #4
0x004637fc  e2 83 82 9a  CSEL X2, XZR, X2, HI
0x00463800  90 00 80 d2  MOV X16, #0x4
0x00463804  10 0e a0 f2  MOVK X16, #0x70, LSL #16
0x00463808  42 00 10 aa  ORR X2, X2, X16
0x0046380c  02 f0 1f f8  STUR X2, [X0,#-1]
0x00463810  e2 03 04 aa  MOV X2, X4
0x00463814  02 30 01 b8  STUR W2, [X0,#19]
0x00463818  e3 03 1f aa  MOV X3, XZR
0x0046381c  02 5c 00 91  ADD X2, X0, #0x17
0x00463820  02 70 00 f8  STUR X2, [X0,#7]
0x00463824  5f 00 01 eb  CMP X2, X1
0x00463828  82 00 00 54  B CS, .+0x10
0x0046382c  43 00 00 f9  STR X3, [X2]
0x00463830  42 20 00 91  ADD X2, X2, #0x8
0x00463834  fc ff ff 17  B .+0xfffffffffffffff0
0x00463838  c0 03 5f d6  RET X30
0x0046383c  fd 79 bf a9  STP X29, X30, [X15,#-16]!
0x00463840  fd 03 0f aa  MOV X29, X15
0x00463844  ff 8d 1f f8  STR XZR, [X15,#-8]!
0x00463848  10 1c 80 d2  MOV X16, #0xe0
0x0046384c  f0 8d 1f f8  STR X16, [X15,#-8]!
0x00463850  e4 8d 1f f8  STR X4, [X15,#-8]!
0x00463854  45 87 41 f9  LDR X5, [X26,#776]
0x00463858  44 00 80 d2  MOV X4, #0x2
0x0046385c  5e 0b 41 f9  LDR X30, [X26,#528]
0x00463860  c0 03 3f d6  BLR X30
0x00463864  ef 41 00 91  ADD X15, X15, #0x10
0x00463868  e0 85 40 f8  LDR X0, [X15],#8
0x0046386c  ef 03 1d aa  MOV X15, X29
0x00463870  fd 79 c1 a8  LDP X29, X30, [X15],#16
0x00463874  c0 03 5f d6  RET X30
0x00463878  e2 03 04 aa  MOV X2, X4
0x0046387c  62 04 00 37  TBNZ W2, #0, .+0x8c
0x00463880  42 7c 41 93  SBFX X2, X2, #1, #31
0x00463884  11 fd 9f d2  MOV X17, #0xffe8
0x00463888  71 00 a0 f2  MOVK X17, #0x3, LSL #16
0x0046388c  5f 00 11 6b  CMP W2, W17
0x00463890  c8 03 00 54  B HI, .+0x78
0x00463894  42 fc 40 d3  LSR X2, X2, #0
0x00463898  42 9c 00 91  ADD X2, X2, #0x27
0x0046389c  42 ec 7c 92  AND X2, X2, #0xfffffffffffffff0
0x004638a0  40 33 40 f9  LDR X0, [X26,#96]
0x004638a4  01 00 02 ab  ADDS X1, X0, X2
0x004638a8  02 03 00 54  B CS, .+0x60
0x004638ac  46 37 40 f9  LDR X6, [X26,#104]
0x004638b0  3f 00 06 eb  CMP X1, X6
0x004638b4  a2 02 00 54  B CS, .+0x54
0x004638b8  41 33 00 f9  STR X1, [X26,#96]
0x004638bc  00 04 00 91  ADD X0, X0, #0x1
0x004638c0  5f c0 3f f1  CMP X2, #0xff0
0x004638c4  42 ec 7c d3  LSL X2, X2, #4
0x004638c8  e2 83 82 9a  CSEL X2, XZR, X2, HI
0x004638cc  90 00 80 d2  MOV X16, #0x4
0x004638d0  b0 0d a0 f2  MOVK X16, #0x6d, LSL #16
0x004638d4  42 00 10 aa  ORR X2, X2, X16
0x004638d8  02 f0 1f f8  STUR X2, [X0,#-1]
0x004638dc  e2 03 04 aa  MOV X2, X4
0x004638e0  02 30 01 b8  STUR W2, [X0,#19]
0x004638e4  e3 03 1f aa  MOV X3, XZR
0x004638e8  02 5c 00 91  ADD X2, X0, #0x17
0x004638ec  02 70 00 f8  STUR X2, [X0,#7]
0x004638f0  5f 00 01 eb  CMP X2, X1
0x004638f4  82 00 00 54  B CS, .+0x10
0x004638f8  43 00 00 f9  STR X3, [X2]
0x004638fc  42 20 00 91  ADD X2, X2, #0x8
0x00463900  fc ff ff 17  B .+0xfffffffffffffff0
0x00463904  c0 03 5f d6  RET X30
0x00463908  fd 79 bf a9  STP X29, X30, [X15,#-16]!
0x0046390c  fd 03 0f aa  MOV X29, X15
0x00463910  ff 8d 1f f8  STR XZR, [X15,#-8]!
0x00463914  50 1b 80 d2  MOV X16, #0xda
0x00463918  f0 8d 1f f8  STR X16, [X15,#-8]!
0x0046391c  e4 8d 1f f8  STR X4, [X15,#-8]!
0x00463920  45 87 41 f9  LDR X5, [X26,#776]
0x00463924  44 00 80 d2  MOV X4, #0x2
0x00463928  5e 0b 41 f9  LDR X30, [X26,#528]
0x0046392c  c0 03 3f d6  BLR X30
0x00463930  ef 41 00 91  ADD X15, X15, #0x10
0x00463934  e0 85 40 f8  LDR X0, [X15],#8
0x00463938  ef 03 1d aa  MOV X15, X29
0x0046393c  fd 79 c1 a8  LDP X29, X30, [X15],#16
0x00463940  c0 03 5f d6  RET X30
0x00463944  e2 03 04 aa  MOV X2, X4
0x00463948  62 04 00 37  TBNZ W2, #0, .+0x8c
0x0046394c  42 7c 41 93  SBFX X2, X2, #1, #31
0x00463950  11 fd 9f d2  MOV X17, #0xffe8
0x00463954  71 00 a0 f2  MOVK X17, #0x3, LSL #16
0x00463958  5f 00 11 6b  CMP W2, W17
0x0046395c  c8 03 00 54  B HI, .+0x78
0x00463960  42 fc 40 d3  LSR X2, X2, #0
0x00463964  42 9c 00 91  ADD X2, X2, #0x27
0x00463968  42 ec 7c 92  AND X2, X2, #0xfffffffffffffff0
0x0046396c  40 33 40 f9  LDR X0, [X26,#96]
0x00463970  01 00 02 ab  ADDS X1, X0, X2
0x00463974  02 03 00 54  B CS, .+0x60
0x00463978  46 37 40 f9  LDR X6, [X26,#104]
0x0046397c  3f 00 06 eb  CMP X1, X6
0x00463980  a2 02 00 54  B CS, .+0x54
0x00463984  41 33 00 f9  STR X1, [X26,#96]
0x00463988  00 04 00 91  ADD X0, X0, #0x1
0x0046398c  5f c0 3f f1  CMP X2, #0xff0
0x00463990  42 ec 7c d3  LSL X2, X2, #4
0x00463994  e2 83 82 9a  CSEL X2, XZR, X2, HI
0x00463998  90 00 80 d2  MOV X16, #0x4
0x0046399c  50 0d a0 f2  MOVK X16, #0x6a, LSL #16
0x004639a0  42 00 10 aa  ORR X2, X2, X16
0x004639a4  02 f0 1f f8  STUR X2, [X0,#-1]
0x004639a8  e2 03 04 aa  MOV X2, X4
0x004639ac  02 30 01 b8  STUR W2, [X0,#19]
0x004639b0  e3 03 1f aa  MOV X3, XZR
0x004639b4  02 5c 00 91  ADD X2, X0, #0x17
0x004639b8  02 70 00 f8  STUR X2, [X0,#7]
0x004639bc  5f 00 01 eb  CMP X2, X1
0x004639c0  82 00 00 54  B CS, .+0x10
0x004639c4  43 00 00 f9  STR X3, [X2]
0x004639c8  42 20 00 91  ADD X2, X2, #0x8
0x004639cc  fc ff ff 17  B .+0xfffffffffffffff0
0x004639d0  c0 03 5f d6  RET X30
0x004639d4  fd 79 bf a9  STP X29, X30, [X15,#-16]!
0x004639d8  fd 03 0f aa  MOV X29, X15
0x004639dc  ff 8d 1f f8  STR XZR, [X15,#-8]!
0x004639e0  90 1a 80 d2  MOV X16, #0xd4
0x004639e4  f0 8d 1f f8  STR X16, [X15,#-8]!
0x004639e8  e4 8d 1f f8  STR X4, [X15,#-8]!
0x004639ec  45 87 41 f9  LDR X5, [X26,#776]
0x004639f0  44 00 80 d2  MOV X4, #0x2
0x004639f4  5e 0b 41 f9  LDR X30, [X26,#528]
0x004639f8  c0 03 3f d6  BLR X30
0x004639fc  ef 41 00 91  ADD X15, X15, #0x10
0x00463a00  e0 85 40 f8  LDR X0, [X15],#8
0x00463a04  ef 03 1d aa  MOV X15, X29
0x00463a08  fd 79 c1 a8  LDP X29, X30, [X15],#16
0x00463a0c  c0 03 5f d6  RET X30
0x00463a10  40 07 46 a9  LDP X0, X1, [X26,#96]
0x00463a14  00 80 00 91  ADD X0, X0, #0x20
0x00463a18  3f 00 00 eb  CMP X1, X0
0x00463a1c  e9 00 00 54  B LS, .+0x1c
0x00463a20  40 33 00 f9  STR X0, [X26,#96]
0x00463a24  00 7c 00 d1  SUB X0, X0, #0x1f
0x00463a28  81 40 80 d2  MOV X1, #0x204
0x00463a2c  61 07 a0 f2  MOVK X1, #0x3b, LSL #16
0x00463a30  01 f0 1f f8  STUR X1, [X0,#-1]
0x00463a34  c0 03 5f d6  RET X30
0x00463a38  fd 79 bf a9  STP X29, X30, [X15,#-16]!
0x00463a3c  fd 03 0f aa  MOV X29, X15
0x00463a40  f6 8d 1f f8  STR X22, [X15,#-8]!
0x00463a44  45 83 41 f9  LDR X5, [X26,#768]
0x00463a48  04 00 80 d2  MOV X4, #0x0
0x00463a4c  5e 0b 41 f9  LDR X30, [X26,#528]
0x00463a50  c0 03 3f d6  BLR X30
0x00463a54  e0 85 40 f8  LDR X0, [X15],#8
0x00463a58  ef 03 1d aa  MOV X15, X29
0x00463a5c  fd 79 c1 a8  LDP X29, X30, [X15],#16
0x00463a60  c0 03 5f d6  RET X30
0x00463a64  40 07 46 a9  LDP X0, X1, [X26,#96]
0x00463a68  00 80 00 91  ADD X0, X0, #0x20
0x00463a6c  3f 00 00 eb  CMP X1, X0
0x00463a70  e9 00 00 54  B LS, .+0x1c
0x00463a74  40 33 00 f9  STR X0, [X26,#96]
0x00463a78  00 7c 00 d1  SUB X0, X0, #0x1f
0x00463a7c  81 40 80 d2  MOV X1, #0x204
0x00463a80  81 07 a0 f2  MOVK X1, #0x3c, LSL #16
0x00463a84  01 f0 1f f8  STUR X1, [X0,#-1]
0x00463a88  c0 03 5f d6  RET X30
0x00463a8c  fd 79 bf a9  STP X29, X30, [X15,#-16]!
0x00463a90  fd 03 0f aa  MOV X29, X15
0x00463a94  f6 8d 1f f8  STR X22, [X15,#-8]!
0x00463a98  45 7f 41 f9  LDR X5, [X26,#760]
0x00463a9c  04 00 80 d2  MOV X4, #0x0
0x00463aa0  5e 0b 41 f9  LDR X30, [X26,#528]
0x00463aa4  c0 03 3f d6  BLR X30
0x00463aa8  e0 85 40 f8  LDR X0, [X15],#8
0x00463aac  ef 03 1d aa  MOV X15, X29
0x00463ab0  fd 79 c1 a8  LDP X29, X30, [X15],#16
0x00463ab4  c0 03 5f d6  RET X30
0x00463ab8  40 07 46 a9  LDP X0, X1, [X26,#96]
0x00463abc  00 80 00 91  ADD X0, X0, #0x20
0x00463ac0  3f 00 00 eb  CMP X1, X0
0x00463ac4  e9 00 00 54  B LS, .+0x1c
0x00463ac8  40 33 00 f9  STR X0, [X26,#96]
0x00463acc  00 7c 00 d1  SUB X0, X0, #0x1f
0x00463ad0  81 40 80 d2  MOV X1, #0x204
0x00463ad4  41 07 a0 f2  MOVK X1, #0x3a, LSL #16
0x00463ad8  01 f0 1f f8  STUR X1, [X0,#-1]
0x00463adc  c0 03 5f d6  RET X30
0x00463ae0  fd 79 bf a9  STP X29, X30, [X15,#-16]!
0x00463ae4  fd 03 0f aa  MOV X29, X15
0x00463ae8  f6 8d 1f f8  STR X22, [X15,#-8]!
0x00463aec  45 7b 41 f9  LDR X5, [X26,#752]
0x00463af0  04 00 80 d2  MOV X4, #0x0
0x00463af4  5e 0b 41 f9  LDR X30, [X26,#528]
0x00463af8  c0 03 3f d6  BLR X30
0x00463afc  e0 85 40 f8  LDR X0, [X15],#8
0x00463b00  ef 03 1d aa  MOV X15, X29
0x00463b04  fd 79 c1 a8  LDP X29, X30, [X15],#16
0x00463b08  c0 03 5f d6  RET X30
0x00463b0c  40 07 46 a9  LDP X0, X1, [X26,#96]
0x00463b10  00 40 00 91  ADD X0, X0, #0x10
0x00463b14  3f 00 00 eb  CMP X1, X0
0x00463b18  e9 00 00 54  B LS, .+0x1c
0x00463b1c  40 33 00 f9  STR X0, [X26,#96]
0x00463b20  00 3c 00 d1  SUB X0, X0, #0xf
0x00463b24  81 20 80 d2  MOV X1, #0x104
0x00463b28  01 07 a0 f2  MOVK X1, #0x38, LSL #16
0x00463b2c  01 f0 1f f8  STUR X1, [X0,#-1]
0x00463b30  c0 03 5f d6  RET X30
0x00463b34  fd 79 bf a9  STP X29, X30, [X15,#-16]!
0x00463b38  fd 03 0f aa  MOV X29, X15
0x00463b3c  f6 8d 1f f8  STR X22, [X15,#-8]!
0x00463b40  45 77 41 f9  LDR X5, [X26,#744]
0x00463b44  04 00 80 d2  MOV X4, #0x0
0x00463b48  5e 0b 41 f9  LDR X30, [X26,#528]
0x00463b4c  c0 03 3f d6  BLR X30
0x00463b50  e0 85 40 f8  LDR X0, [X15],#8
0x00463b54  ef 03 1d aa  MOV X15, X29
0x00463b58  fd 79 c1 a8  LDP X29, X30, [X15],#16
0x00463b5c  c0 03 5f d6  RET X30
0x00463b60  40 07 46 a9  LDP X0, X1, [X26,#96]
0x00463b64  00 40 00 91  ADD X0, X0, #0x10
0x00463b68  3f 00 00 eb  CMP X1, X0
0x00463b6c  e9 00 00 54  B LS, .+0x1c
0x00463b70  40 33 00 f9  STR X0, [X26,#96]
0x00463b74  00 3c 00 d1  SUB X0, X0, #0xf
0x00463b78  81 20 80 d2  MOV X1, #0x104
0x00463b7c  e1 06 a0 f2  MOVK X1, #0x37, LSL #16
0x00463b80  01 f0 1f f8  STUR X1, [X0,#-1]
0x00463b84  c0 03 5f d6  RET X30
0x00463b88  fd 79 bf a9  STP X29, X30, [X15,#-16]!
0x00463b8c  fd 03 0f aa  MOV X29, X15
0x00463b90  f6 8d 1f f8  STR X22, [X15,#-8]!
0x00463b94  45 73 41 f9  LDR X5, [X26,#736]
0x00463b98  04 00 80 d2  MOV X4, #0x0
0x00463b9c  5e 0b 41 f9  LDR X30, [X26,#528]
0x00463ba0  c0 03 3f d6  BLR X30
0x00463ba4  e0 85 40 f8  LDR X0, [X15],#8
0x00463ba8  ef 03 1d aa  MOV X15, X29
0x00463bac  fd 79 c1 a8  LDP X29, X30, [X15],#16
0x00463bb0  c0 03 5f d6  RET X30
0x00463bb4  02 04 00 37  TBNZ W2, #0, .+0x80
0x00463bb8  f1 37 7d b2  MOV X17, #0x1fff8
0x00463bbc  5f 00 11 6b  CMP W2, W17
0x00463bc0  a8 03 00 54  B HI, .+0x74
0x00463bc4  40 33 40 f9  LDR X0, [X26,#96]
0x00463bc8  e3 03 80 d2  MOV X3, #0x1f
0x00463bcc  63 04 02 0b  ADD W3, W3, W2, LSL #1
0x00463bd0  63 ec 7c 92  AND X3, X3, #0xfffffffffffffff0
0x00463bd4  67 00 00 ab  ADDS X7, X3, X0
0x00463bd8  e2 02 00 54  B CS, .+0x5c
0x00463bdc  50 37 40 f9  LDR X16, [X26,#104]
0x00463be0  ff 00 10 eb  CMP X7, X16
0x00463be4  82 02 00 54  B CS, .+0x50
0x00463be8  47 33 00 f9  STR X7, [X26,#96]
0x00463bec  00 04 00 91  ADD X0, X0, #0x1
0x00463bf0  01 70 00 b8  STUR W1, [X0,#7]
0x00463bf4  02 b0 00 b8  STUR W2, [X0,#11]
0x00463bf8  7f c0 3f f1  CMP X3, #0xff0
0x00463bfc  70 ec 7c d3  LSL X16, X3, #4
0x00463c00  03 92 83 9a  CSEL X3, X16, X3, LS
0x00463c04  e3 83 83 9a  CSEL X3, XZR, X3, HI
0x00463c08  90 00 80 d2  MOV X16, #0x4
0x00463c0c  30 0a a0 f2  MOVK X16, #0x51, LSL #16
0x00463c10  63 00 10 aa  ORR X3, X3, X16
0x00463c14  03 f0 1f f8  STUR X3, [X0,#-1]
0x00463c18  03 3c 00 91  ADD X3, X0, #0xf
0x00463c1c  7f 00 07 eb  CMP X3, X7
0x00463c20  82 00 00 54  B CS, .+0x10
0x00463c24  76 00 00 b9  STR W22, [X3]
0x00463c28  63 10 00 91  ADD X3, X3, #0x4
0x00463c2c  fc ff ff 17  B .+0xfffffffffffffff0
0x00463c30  c0 03 5f d6  RET X30
0x00463c34  fd 79 bf a9  STP X29, X30, [X15,#-16]!
0x00463c38  fd 03 0f aa  MOV X29, X15
0x00463c3c  ff 8d 1f f8  STR XZR, [X15,#-8]!
0x00463c40  e2 8d 1f f8  STR X2, [X15,#-8]!
0x00463c44  e1 8d 1f f8  STR X1, [X15,#-8]!
0x00463c48  45 6f 41 f9  LDR X5, [X26,#728]
0x00463c4c  44 00 80 d2  MOV X4, #0x2
0x00463c50  5e 0b 41 f9  LDR X30, [X26,#528]
0x00463c54  c0 03 3f d6  BLR X30
0x00463c58  e1 85 40 f8  LDR X1, [X15],#8
0x00463c5c  e2 85 40 f8  LDR X2, [X15],#8
0x00463c60  e0 85 40 f8  LDR X0, [X15],#8
0x00463c64  ef 03 1d aa  MOV X15, X29
0x00463c68  fd 79 c1 a8  LDP X29, X30, [X15],#16
0x00463c6c  40 0c 18 37  TBNZ W0, #3, .+0x188
0x00463c70  fd 79 bf a9  STP X29, X30, [X15,#-16]!
0x00463c74  fd 03 0f aa  MOV X29, X15
0x00463c78  ff 8d 1f fc  STR D31, [X15,#-8]!
0x00463c7c  fe 8d 1f fc  STR D30, [X15,#-8]!
0x00463c80  fd 8d 1f fc  STR D29, [X15,#-8]!
0x00463c84  fc 8d 1f fc  STR D28, [X15,#-8]!
0x00463c88  fb 8d 1f fc  STR D27, [X15,#-8]!
0x00463c8c  fa 8d 1f fc  STR D26, [X15,#-8]!
0x00463c90  f9 8d 1f fc  STR D25, [X15,#-8]!
0x00463c94  f8 8d 1f fc  STR D24, [X15,#-8]!
0x00463c98  f7 8d 1f fc  STR D23, [X15,#-8]!
0x00463c9c  f6 8d 1f fc  STR D22, [X15,#-8]!
0x00463ca0  f5 8d 1f fc  STR D21, [X15,#-8]!
0x00463ca4  f4 8d 1f fc  STR D20, [X15,#-8]!
0x00463ca8  f3 8d 1f fc  STR D19, [X15,#-8]!
0x00463cac  f2 8d 1f fc  STR D18, [X15,#-8]!
0x00463cb0  f1 8d 1f fc  STR D17, [X15,#-8]!
0x00463cb4  f0 8d 1f fc  STR D16, [X15,#-8]!
0x00463cb8  e7 8d 1f fc  STR D7, [X15,#-8]!
0x00463cbc  e6 8d 1f fc  STR D6, [X15,#-8]!
0x00463cc0  e5 8d 1f fc  STR D5, [X15,#-8]!
0x00463cc4  e4 8d 1f fc  STR D4, [X15,#-8]!
0x00463cc8  e3 8d 1f fc  STR D3, [X15,#-8]!
0x00463ccc  e2 8d 1f fc  STR D2, [X15,#-8]!
0x00463cd0  e1 8d 1f fc  STR D1, [X15,#-8]!
0x00463cd4  e0 8d 1f fc  STR D0, [X15,#-8]!
0x00463cd8  e0 8d 1f f8  STR X0, [X15,#-8]!
0x00463cdc  e1 8d 1f f8  STR X1, [X15,#-8]!
0x00463ce0  e2 8d 1f f8  STR X2, [X15,#-8]!
0x00463ce4  e3 8d 1f f8  STR X3, [X15,#-8]!
0x00463ce8  e4 8d 1f f8  STR X4, [X15,#-8]!
0x00463cec  e5 8d 1f f8  STR X5, [X15,#-8]!
0x00463cf0  e6 8d 1f f8  STR X6, [X15,#-8]!
0x00463cf4  e7 8d 1f f8  STR X7, [X15,#-8]!
0x00463cf8  e8 8d 1f f8  STR X8, [X15,#-8]!
0x00463cfc  e9 8d 1f f8  STR X9, [X15,#-8]!
0x00463d00  ea 8d 1f f8  STR X10, [X15,#-8]!
0x00463d04  eb 8d 1f f8  STR X11, [X15,#-8]!
0x00463d08  ec 8d 1f f8  STR X12, [X15,#-8]!
0x00463d0c  ed 8d 1f f8  STR X13, [X15,#-8]!
0x00463d10  ee 8d 1f f8  STR X14, [X15,#-8]!
0x00463d14  f4 65 bf a9  STP X20, X25, [X15,#-16]!
0x00463d18  e1 03 1a aa  MOV X1, X26
0x00463d1c  f4 03 00 91  MOV X20, SP
0x00463d20  f9 03 0f aa  MOV X25, X15
0x00463d24  ef ed 7c 92  AND X15, X15, #0xfffffffffffffff0
0x00463d28  ff 01 00 91  MOV SP, X15
0x00463d2c  50 5f 42 f9  LDR X16, [X26,#1208]
0x00463d30  50 5b 00 f9  STR X16, [X26,#176]
0x00463d34  00 02 3f d6  BLR X16
0x00463d38  10 01 80 d2  MOV X16, #0x8
0x00463d3c  50 5b 00 f9  STR X16, [X26,#176]
0x00463d40  ef 03 19 aa  MOV X15, X25
0x00463d44  9f 02 00 91  MOV SP, X20
0x00463d48  af 23 05 d1  SUB X15, X29, #0x148
0x00463d4c  f4 65 c1 a8  LDP X20, X25, [X15],#16
0x00463d50  ee 85 40 f8  LDR X14, [X15],#8
0x00463d54  ed 85 40 f8  LDR X13, [X15],#8
0x00463d58  ec 85 40 f8  LDR X12, [X15],#8
0x00463d5c  eb 85 40 f8  LDR X11, [X15],#8
0x00463d60  ea 85 40 f8  LDR X10, [X15],#8
0x00463d64  e9 85 40 f8  LDR X9, [X15],#8
0x00463d68  e8 85 40 f8  LDR X8, [X15],#8
0x00463d6c  e7 85 40 f8  LDR X7, [X15],#8
0x00463d70  e6 85 40 f8  LDR X6, [X15],#8
0x00463d74  e5 85 40 f8  LDR X5, [X15],#8
0x00463d78  e4 85 40 f8  LDR X4, [X15],#8
0x00463d7c  e3 85 40 f8  LDR X3, [X15],#8
0x00463d80  e2 85 40 f8  LDR X2, [X15],#8
0x00463d84  e1 85 40 f8  LDR X1, [X15],#8
0x00463d88  e0 85 40 f8  LDR X0, [X15],#8
0x00463d8c  e0 85 40 fc  LDR D0, [X15],#8
0x00463d90  e1 85 40 fc  LDR D1, [X15],#8
0x00463d94  e2 85 40 fc  LDR D2, [X15],#8
0x00463d98  e3 85 40 fc  LDR D3, [X15],#8
0x00463d9c  e4 85 40 fc  LDR D4, [X15],#8
0x00463da0  e5 85 40 fc  LDR D5, [X15],#8
0x00463da4  e6 85 40 fc  LDR D6, [X15],#8
0x00463da8  e7 85 40 fc  LDR D7, [X15],#8
0x00463dac  f0 85 40 fc  LDR D16, [X15],#8
0x00463db0  f1 85 40 fc  LDR D17, [X15],#8
0x00463db4  f2 85 40 fc  LDR D18, [X15],#8
0x00463db8  f3 85 40 fc  LDR D19, [X15],#8
0x00463dbc  f4 85 40 fc  LDR D20, [X15],#8
0x00463dc0  f5 85 40 fc  LDR D21, [X15],#8
0x00463dc4  f6 85 40 fc  LDR D22, [X15],#8
0x00463dc8  f7 85 40 fc  LDR D23, [X15],#8
0x00463dcc  f8 85 40 fc  LDR D24, [X15],#8
0x00463dd0  f9 85 40 fc  LDR D25, [X15],#8
0x00463dd4  fa 85 40 fc  LDR D26, [X15],#8
0x00463dd8  fb 85 40 fc  LDR D27, [X15],#8
0x00463ddc  fc 85 40 fc  LDR D28, [X15],#8
0x00463de0  fd 85 40 fc  LDR D29, [X15],#8
0x00463de4  fe 85 40 fc  LDR D30, [X15],#8
0x00463de8  ff 85 40 fc  LDR D31, [X15],#8
0x00463dec  ef 03 1d aa  MOV X15, X29
0x00463df0  fd 79 c1 a8  LDP X29, X30, [X15],#16
0x00463df4  c0 03 5f d6  RET X30
0x00463df8  a0 0f 18 36  TBZ W0, #3, .+0x1f4
0x00463dfc  30 f0 9f b8  LDURSW X16, [X1,#-1]
0x00463e00  50 1f 00 37  TBNZ W16, #0, .+0x3e8
0x00463e04  e2 8d 1f f8  STR X2, [X15,#-8]!
0x00463e08  e3 8d 1f f8  STR X3, [X15,#-8]!
0x00463e0c  e4 8d 1f f8  STR X4, [X15,#-8]!
0x00463e10  23 04 00 d1  SUB X3, X1, #0x1
0x00463e14  62 7c 5f c8  LDXR X2, [X3]
0x00463e18  e2 1d 20 36  TBZ W2, #4, .+0x3bc
0x00463e1c  42 f8 7b 92  AND X2, X2, #0xffffffffffffffef
0x00463e20  62 7c 04 c8  STXR W4, X2, [X3]
0x00463e24  84 ff ff b5  CBNZ X4, .+0xfffffffffffffff0
0x00463e28  44 4f 40 f9  LDR X4, [X26,#152]
0x00463e2c  82 08 40 b9  LDR W2, [X4,#8]
0x00463e30  83 0c 02 8b  ADD X3, X4, X2, LSL #3
0x00463e34  61 08 00 f9  STR X1, [X3,#16]
0x00463e38  42 04 00 91  ADD X2, X2, #0x1
0x00463e3c  82 08 00 b9  STR W2, [X4,#8]
0x00463e40  5f 00 10 f1  CMP X2, #0x400
0x00463e44  e4 85 40 f8  LDR X4, [X15],#8
0x00463e48  e3 85 40 f8  LDR X3, [X15],#8
0x00463e4c  e2 85 40 f8  LDR X2, [X15],#8
0x00463e50  40 00 00 54  B EQ, .+0x8
0x00463e54  c0 03 5f d6  RET X30
0x00463e58  f8 8d 1f f8  STR X24, [X15,#-8]!
0x00463e5c  58 77 40 f9  LDR X24, [X26,#232]
0x00463e60  fd 79 bf a9  STP X29, X30, [X15,#-16]!
0x00463e64  fd 03 0f aa  MOV X29, X15
0x00463e68  ff 8d 1f fc  STR D31, [X15,#-8]!
0x00463e6c  fe 8d 1f fc  STR D30, [X15,#-8]!
0x00463e70  fd 8d 1f fc  STR D29, [X15,#-8]!
0x00463e74  fc 8d 1f fc  STR D28, [X15,#-8]!
0x00463e78  fb 8d 1f fc  STR D27, [X15,#-8]!
0x00463e7c  fa 8d 1f fc  STR D26, [X15,#-8]!
0x00463e80  f9 8d 1f fc  STR D25, [X15,#-8]!
0x00463e84  f8 8d 1f fc  STR D24, [X15,#-8]!
0x00463e88  f7 8d 1f fc  STR D23, [X15,#-8]!
0x00463e8c  f6 8d 1f fc  STR D22, [X15,#-8]!
0x00463e90  f5 8d 1f fc  STR D21, [X15,#-8]!
0x00463e94  f4 8d 1f fc  STR D20, [X15,#-8]!
0x00463e98  f3 8d 1f fc  STR D19, [X15,#-8]!
0x00463e9c  f2 8d 1f fc  STR D18, [X15,#-8]!
0x00463ea0  f1 8d 1f fc  STR D17, [X15,#-8]!
0x00463ea4  f0 8d 1f fc  STR D16, [X15,#-8]!
0x00463ea8  e7 8d 1f fc  STR D7, [X15,#-8]!
0x00463eac  e6 8d 1f fc  STR D6, [X15,#-8]!
0x00463eb0  e5 8d 1f fc  STR D5, [X15,#-8]!
0x00463eb4  e4 8d 1f fc  STR D4, [X15,#-8]!
0x00463eb8  e3 8d 1f fc  STR D3, [X15,#-8]!
0x00463ebc  e2 8d 1f fc  STR D2, [X15,#-8]!
0x00463ec0  e1 8d 1f fc  STR D1, [X15,#-8]!
0x00463ec4  e0 8d 1f fc  STR D0, [X15,#-8]!
0x00463ec8  e0 8d 1f f8  STR X0, [X15,#-8]!
0x00463ecc  e1 8d 1f f8  STR X1, [X15,#-8]!
0x00463ed0  e2 8d 1f f8  STR X2, [X15,#-8]!
0x00463ed4  e3 8d 1f f8  STR X3, [X15,#-8]!
0x00463ed8  e4 8d 1f f8  STR X4, [X15,#-8]!
0x00463edc  e5 8d 1f f8  STR X5, [X15,#-8]!
0x00463ee0  e6 8d 1f f8  STR X6, [X15,#-8]!
0x00463ee4  e7 8d 1f f8  STR X7, [X15,#-8]!
0x00463ee8  e8 8d 1f f8  STR X8, [X15,#-8]!
0x00463eec  e9 8d 1f f8  STR X9, [X15,#-8]!
0x00463ef0  ea 8d 1f f8  STR X10, [X15,#-8]!
0x00463ef4  eb 8d 1f f8  STR X11, [X15,#-8]!
0x00463ef8  ec 8d 1f f8  STR X12, [X15,#-8]!
0x00463efc  ed 8d 1f f8  STR X13, [X15,#-8]!
0x00463f00  ee 8d 1f f8  STR X14, [X15,#-8]!
0x00463f04  f4 65 bf a9  STP X20, X25, [X15,#-16]!
0x00463f08  e0 03 1a aa  MOV X0, X26
0x00463f0c  f4 03 00 91  MOV X20, SP
0x00463f10  f9 03 0f aa  MOV X25, X15
0x00463f14  ef ed 7c 92  AND X15, X15, #0xfffffffffffffff0
0x00463f18  ff 01 00 91  MOV SP, X15
0x00463f1c  50 53 42 f9  LDR X16, [X26,#1184]
0x00463f20  50 5b 00 f9  STR X16, [X26,#176]
0x00463f24  00 02 3f d6  BLR X16
0x00463f28  10 01 80 d2  MOV X16, #0x8
0x00463f2c  50 5b 00 f9  STR X16, [X26,#176]
0x00463f30  ef 03 19 aa  MOV X15, X25
0x00463f34  9f 02 00 91  MOV SP, X20
0x00463f38  af 23 05 d1  SUB X15, X29, #0x148
0x00463f3c  f4 65 c1 a8  LDP X20, X25, [X15],#16
0x00463f40  ee 85 40 f8  LDR X14, [X15],#8
0x00463f44  ed 85 40 f8  LDR X13, [X15],#8
0x00463f48  ec 85 40 f8  LDR X12, [X15],#8
0x00463f4c  eb 85 40 f8  LDR X11, [X15],#8
0x00463f50  ea 85 40 f8  LDR X10, [X15],#8
0x00463f54  e9 85 40 f8  LDR X9, [X15],#8
0x00463f58  e8 85 40 f8  LDR X8, [X15],#8
0x00463f5c  e7 85 40 f8  LDR X7, [X15],#8
0x00463f60  e6 85 40 f8  LDR X6, [X15],#8
0x00463f64  e5 85 40 f8  LDR X5, [X15],#8
0x00463f68  e4 85 40 f8  LDR X4, [X15],#8
0x00463f6c  e3 85 40 f8  LDR X3, [X15],#8
0x00463f70  e2 85 40 f8  LDR X2, [X15],#8
0x00463f74  e1 85 40 f8  LDR X1, [X15],#8
0x00463f78  e0 85 40 f8  LDR X0, [X15],#8
0x00463f7c  e0 85 40 fc  LDR D0, [X15],#8
0x00463f80  e1 85 40 fc  LDR D1, [X15],#8
0x00463f84  e2 85 40 fc  LDR D2, [X15],#8
0x00463f88  e3 85 40 fc  LDR D3, [X15],#8
0x00463f8c  e4 85 40 fc  LDR D4, [X15],#8
0x00463f90  e5 85 40 fc  LDR D5, [X15],#8
0x00463f94  e6 85 40 fc  LDR D6, [X15],#8
0x00463f98  e7 85 40 fc  LDR D7, [X15],#8
0x00463f9c  f0 85 40 fc  LDR D16, [X15],#8
0x00463fa0  f1 85 40 fc  LDR D17, [X15],#8
0x00463fa4  f2 85 40 fc  LDR D18, [X15],#8
0x00463fa8  f3 85 40 fc  LDR D19, [X15],#8
0x00463fac  f4 85 40 fc  LDR D20, [X15],#8
0x00463fb0  f5 85 40 fc  LDR D21, [X15],#8
0x00463fb4  f6 85 40 fc  LDR D22, [X15],#8
0x00463fb8  f7 85 40 fc  LDR D23, [X15],#8
0x00463fbc  f8 85 40 fc  LDR D24, [X15],#8
0x00463fc0  f9 85 40 fc  LDR D25, [X15],#8
0x00463fc4  fa 85 40 fc  LDR D26, [X15],#8
0x00463fc8  fb 85 40 fc  LDR D27, [X15],#8
0x00463fcc  fc 85 40 fc  LDR D28, [X15],#8
0x00463fd0  fd 85 40 fc  LDR D29, [X15],#8
0x00463fd4  fe 85 40 fc  LDR D30, [X15],#8
0x00463fd8  ff 85 40 fc  LDR D31, [X15],#8
0x00463fdc  ef 03 1d aa  MOV X15, X29
0x00463fe0  fd 79 c1 a8  LDP X29, X30, [X15],#16
0x00463fe4  f8 85 40 f8  LDR X24, [X15],#8
0x00463fe8  c0 03 5f d6  RET X30
0x00463fec  e2 8d 1f f8  STR X2, [X15,#-8]!
0x00463ff0  e3 8d 1f f8  STR X3, [X15,#-8]!
0x00463ff4  e4 8d 1f f8  STR X4, [X15,#-8]!
0x00463ff8  03 04 00 d1  SUB X3, X0, #0x1
0x00463ffc  62 7c 5f c8  LDXR X2, [X3]
0x00464000  a2 0e 08 36  TBZ W2, #1, .+0x1d4
0x00464004  42 f8 7e 92  AND X2, X2, #0xfffffffffffffffd
0x00464008  62 7c 04 c8  STXR W4, X2, [X3]
0x0046400c  84 ff ff b5  CBNZ X4, .+0xfffffffffffffff0
0x00464010  44 53 40 f9  LDR X4, [X26,#160]
0x00464014  82 08 40 b9  LDR W2, [X4,#8]
0x00464018  83 0c 02 8b  ADD X3, X4, X2, LSL #3
0x0046401c  60 08 00 f9  STR X0, [X3,#16]
0x00464020  42 04 00 91  ADD X2, X2, #0x1
0x00464024  82 08 00 b9  STR W2, [X4,#8]
0x00464028  5f 00 01 f1  CMP X2, #0x40
0x0046402c  e4 85 40 f8  LDR X4, [X15],#8
0x00464030  e3 85 40 f8  LDR X3, [X15],#8
0x00464034  e2 85 40 f8  LDR X2, [X15],#8
0x00464038  40 00 00 54  B EQ, .+0x8
0x0046403c  c0 03 5f d6  RET X30
0x00464040  f8 8d 1f f8  STR X24, [X15,#-8]!
0x00464044  58 77 40 f9  LDR X24, [X26,#232]
0x00464048  fd 79 bf a9  STP X29, X30, [X15,#-16]!
0x0046404c  fd 03 0f aa  MOV X29, X15
0x00464050  ff 8d 1f fc  STR D31, [X15,#-8]!
0x00464054  fe 8d 1f fc  STR D30, [X15,#-8]!
0x00464058  fd 8d 1f fc  STR D29, [X15,#-8]!
0x0046405c  fc 8d 1f fc  STR D28, [X15,#-8]!
0x00464060  fb 8d 1f fc  STR D27, [X15,#-8]!
0x00464064  fa 8d 1f fc  STR D26, [X15,#-8]!
0x00464068  f9 8d 1f fc  STR D25, [X15,#-8]!
0x0046406c  f8 8d 1f fc  STR D24, [X15,#-8]!
0x00464070  f7 8d 1f fc  STR D23, [X15,#-8]!
0x00464074  f6 8d 1f fc  STR D22, [X15,#-8]!
0x00464078  f5 8d 1f fc  STR D21, [X15,#-8]!
0x0046407c  f4 8d 1f fc  STR D20, [X15,#-8]!
0x00464080  f3 8d 1f fc  STR D19, [X15,#-8]!
0x00464084  f2 8d 1f fc  STR D18, [X15,#-8]!
0x00464088  f1 8d 1f fc  STR D17, [X15,#-8]!
0x0046408c  f0 8d 1f fc  STR D16, [X15,#-8]!
0x00464090  e7 8d 1f fc  STR D7, [X15,#-8]!
0x00464094  e6 8d 1f fc  STR D6, [X15,#-8]!
0x00464098  e5 8d 1f fc  STR D5, [X15,#-8]!
0x0046409c  e4 8d 1f fc  STR D4, [X15,#-8]!
0x004640a0  e3 8d 1f fc  STR D3, [X15,#-8]!
0x004640a4  e2 8d 1f fc  STR D2, [X15,#-8]!
0x004640a8  e1 8d 1f fc  STR D1, [X15,#-8]!
0x004640ac  e0 8d 1f fc  STR D0, [X15,#-8]!
0x004640b0  e0 8d 1f f8  STR X0, [X15,#-8]!
0x004640b4  e1 8d 1f f8  STR X1, [X15,#-8]!
0x004640b8  e2 8d 1f f8  STR X2, [X15,#-8]!
0x004640bc  e3 8d 1f f8  STR X3, [X15,#-8]!
0x004640c0  e4 8d 1f f8  STR X4, [X15,#-8]!
0x004640c4  e5 8d 1f f8  STR X5, [X15,#-8]!
0x004640c8  e6 8d 1f f8  STR X6, [X15,#-8]!
0x004640cc  e7 8d 1f f8  STR X7, [X15,#-8]!
0x004640d0  e8 8d 1f f8  STR X8, [X15,#-8]!
0x004640d4  e9 8d 1f f8  STR X9, [X15,#-8]!
0x004640d8  ea 8d 1f f8  STR X10, [X15,#-8]!
0x004640dc  eb 8d 1f f8  STR X11, [X15,#-8]!
0x004640e0  ec 8d 1f f8  STR X12, [X15,#-8]!
0x004640e4  ed 8d 1f f8  STR X13, [X15,#-8]!
0x004640e8  ee 8d 1f f8  STR X14, [X15,#-8]!
0x004640ec  f4 65 bf a9  STP X20, X25, [X15,#-16]!
0x004640f0  e0 03 1a aa  MOV X0, X26
0x004640f4  f4 03 00 91  MOV X20, SP
0x004640f8  f9 03 0f aa  MOV X25, X15
0x004640fc  ef ed 7c 92  AND X15, X15, #0xfffffffffffffff0
0x00464100  ff 01 00 91  MOV SP, X15
0x00464104  50 57 42 f9  LDR X16, [X26,#1192]
0x00464108  50 5b 00 f9  STR X16, [X26,#176]
0x0046410c  00 02 3f d6  BLR X16
0x00464110  10 01 80 d2  MOV X16, #0x8
0x00464114  50 5b 00 f9  STR X16, [X26,#176]
0x00464118  ef 03 19 aa  MOV X15, X25
0x0046411c  9f 02 00 91  MOV SP, X20
0x00464120  af 23 05 d1  SUB X15, X29, #0x148
0x00464124  f4 65 c1 a8  LDP X20, X25, [X15],#16
0x00464128  ee 85 40 f8  LDR X14, [X15],#8
0x0046412c  ed 85 40 f8  LDR X13, [X15],#8
0x00464130  ec 85 40 f8  LDR X12, [X15],#8
0x00464134  eb 85 40 f8  LDR X11, [X15],#8
0x00464138  ea 85 40 f8  LDR X10, [X15],#8
0x0046413c  e9 85 40 f8  LDR X9, [X15],#8
0x00464140  e8 85 40 f8  LDR X8, [X15],#8
0x00464144  e7 85 40 f8  LDR X7, [X15],#8
0x00464148  e6 85 40 f8  LDR X6, [X15],#8
0x0046414c  e5 85 40 f8  LDR X5, [X15],#8
0x00464150  e4 85 40 f8  LDR X4, [X15],#8
0x00464154  e3 85 40 f8  LDR X3, [X15],#8
0x00464158  e2 85 40 f8  LDR X2, [X15],#8
0x0046415c  e1 85 40 f8  LDR X1, [X15],#8
0x00464160  e0 85 40 f8  LDR X0, [X15],#8
0x00464164  e0 85 40 fc  LDR D0, [X15],#8
0x00464168  e1 85 40 fc  LDR D1, [X15],#8
0x0046416c  e2 85 40 fc  LDR D2, [X15],#8
0x00464170  e3 85 40 fc  LDR D3, [X15],#8
0x00464174  e4 85 40 fc  LDR D4, [X15],#8
0x00464178  e5 85 40 fc  LDR D5, [X15],#8
0x0046417c  e6 85 40 fc  LDR D6, [X15],#8
0x00464180  e7 85 40 fc  LDR D7, [X15],#8
0x00464184  f0 85 40 fc  LDR D16, [X15],#8
0x00464188  f1 85 40 fc  LDR D17, [X15],#8
0x0046418c  f2 85 40 fc  LDR D18, [X15],#8
0x00464190  f3 85 40 fc  LDR D19, [X15],#8
0x00464194  f4 85 40 fc  LDR D20, [X15],#8
0x00464198  f5 85 40 fc  LDR D21, [X15],#8
0x0046419c  f6 85 40 fc  LDR D22, [X15],#8
0x004641a0  f7 85 40 fc  LDR D23, [X15],#8
0x004641a4  f8 85 40 fc  LDR D24, [X15],#8
0x004641a8  f9 85 40 fc  LDR D25, [X15],#8
0x004641ac  fa 85 40 fc  LDR D26, [X15],#8
0x004641b0  fb 85 40 fc  LDR D27, [X15],#8
0x004641b4  fc 85 40 fc  LDR D28, [X15],#8
0x004641b8  fd 85 40 fc  LDR D29, [X15],#8
0x004641bc  fe 85 40 fc  LDR D30, [X15],#8
0x004641c0  ff 85 40 fc  LDR D31, [X15],#8
0x004641c4  ef 03 1d aa  MOV X15, X29
0x004641c8  fd 79 c1 a8  LDP X29, X30, [X15],#16
0x004641cc  f8 85 40 f8  LDR X24, [X15],#8
0x004641d0  c0 03 5f d6  RET X30
0x004641d4  5f 3f 03 d5  CLREX 
0x004641d8  e4 85 40 f8  LDR X4, [X15],#8
0x004641dc  e3 85 40 f8  LDR X3, [X15],#8
0x004641e0  e2 85 40 f8  LDR X2, [X15],#8
0x004641e4  c0 03 5f d6  RET X30
0x004641e8  30 b0 6d 92  AND X16, X1, #0xfffffffffff80000
0x004641ec  10 16 40 f9  LDR X16, [X16,#40]
0x004641f0  f0 00 00 b4  CBZ X16, .+0x1c
0x004641f4  30 b0 6d 92  AND X16, X1, #0xfffffffffff80000
0x004641f8  39 03 10 cb  SUB X25, X25, X16
0x004641fc  10 16 40 f9  LDR X16, [X16,#40]
0x00464200  10 26 59 8b  ADD X16, X16, X25, LSR #9
0x00464204  01 02 00 39  STRB W1, [X16]
0x00464208  c0 03 5f d6  RET X30
0x0046420c  f8 8d 1f f8  STR X24, [X15,#-8]!
0x00464210  58 77 40 f9  LDR X24, [X26,#232]
0x00464214  fd 79 bf a9  STP X29, X30, [X15,#-16]!
0x00464218  fd 03 0f aa  MOV X29, X15
0x0046421c  ff 8d 1f fc  STR D31, [X15,#-8]!
0x00464220  fe 8d 1f fc  STR D30, [X15,#-8]!
0x00464224  fd 8d 1f fc  STR D29, [X15,#-8]!
0x00464228  fc 8d 1f fc  STR D28, [X15,#-8]!
0x0046422c  fb 8d 1f fc  STR D27, [X15,#-8]!
0x00464230  fa 8d 1f fc  STR D26, [X15,#-8]!
0x00464234  f9 8d 1f fc  STR D25, [X15,#-8]!
0x00464238  f8 8d 1f fc  STR D24, [X15,#-8]!
0x0046423c  f7 8d 1f fc  STR D23, [X15,#-8]!
0x00464240  f6 8d 1f fc  STR D22, [X15,#-8]!
0x00464244  f5 8d 1f fc  STR D21, [X15,#-8]!
0x00464248  f4 8d 1f fc  STR D20, [X15,#-8]!
0x0046424c  f3 8d 1f fc  STR D19, [X15,#-8]!
0x00464250  f2 8d 1f fc  STR D18, [X15,#-8]!
0x00464254  f1 8d 1f fc  STR D17, [X15,#-8]!
0x00464258  f0 8d 1f fc  STR D16, [X15,#-8]!
0x0046425c  e7 8d 1f fc  STR D7, [X15,#-8]!
0x00464260  e6 8d 1f fc  STR D6, [X15,#-8]!
0x00464264  e5 8d 1f fc  STR D5, [X15,#-8]!
0x00464268  e4 8d 1f fc  STR D4, [X15,#-8]!
0x0046426c  e3 8d 1f fc  STR D3, [X15,#-8]!
0x00464270  e2 8d 1f fc  STR D2, [X15,#-8]!
0x00464274  e1 8d 1f fc  STR D1, [X15,#-8]!
0x00464278  e0 8d 1f fc  STR D0, [X15,#-8]!
0x0046427c  e0 8d 1f f8  STR X0, [X15,#-8]!
0x00464280  e1 8d 1f f8  STR X1, [X15,#-8]!
0x00464284  e2 8d 1f f8  STR X2, [X15,#-8]!
0x00464288  e3 8d 1f f8  STR X3, [X15,#-8]!
0x0046428c  e4 8d 1f f8  STR X4, [X15,#-8]!
0x00464290  e5 8d 1f f8  STR X5, [X15,#-8]!
0x00464294  e6 8d 1f f8  STR X6, [X15,#-8]!
0x00464298  e7 8d 1f f8  STR X7, [X15,#-8]!
0x0046429c  e8 8d 1f f8  STR X8, [X15,#-8]!
0x004642a0  e9 8d 1f f8  STR X9, [X15,#-8]!
0x004642a4  ea 8d 1f f8  STR X10, [X15,#-8]!
0x004642a8  eb 8d 1f f8  STR X11, [X15,#-8]!
0x004642ac  ec 8d 1f f8  STR X12, [X15,#-8]!
0x004642b0  ed 8d 1f f8  STR X13, [X15,#-8]!
0x004642b4  ee 8d 1f f8  STR X14, [X15,#-8]!
0x004642b8  f4 65 bf a9  STP X20, X25, [X15,#-16]!
0x004642bc  e0 03 01 aa  MOV X0, X1
0x004642c0  e1 03 19 aa  MOV X1, X25
0x004642c4  f4 03 00 91  MOV X20, SP
0x004642c8  f9 03 0f aa  MOV X25, X15
0x004642cc  ef ed 7c 92  AND X15, X15, #0xfffffffffffffff0
0x004642d0  ff 01 00 91  MOV SP, X15
0x004642d4  50 5b 42 f9  LDR X16, [X26,#1200]
0x004642d8  50 5b 00 f9  STR X16, [X26,#176]
0x004642dc  00 02 3f d6  BLR X16
0x004642e0  10 01 80 d2  MOV X16, #0x8
0x004642e4  50 5b 00 f9  STR X16, [X26,#176]
0x004642e8  ef 03 19 aa  MOV X15, X25
0x004642ec  9f 02 00 91  MOV SP, X20
0x004642f0  af 23 05 d1  SUB X15, X29, #0x148
0x004642f4  f4 65 c1 a8  LDP X20, X25, [X15],#16
0x004642f8  ee 85 40 f8  LDR X14, [X15],#8
0x004642fc  ed 85 40 f8  LDR X13, [X15],#8
0x00464300  ec 85 40 f8  LDR X12, [X15],#8
0x00464304  eb 85 40 f8  LDR X11, [X15],#8
0x00464308  ea 85 40 f8  LDR X10, [X15],#8
0x0046430c  e9 85 40 f8  LDR X9, [X15],#8
0x00464310  e8 85 40 f8  LDR X8, [X15],#8
0x00464314  e7 85 40 f8  LDR X7, [X15],#8
0x00464318  e6 85 40 f8  LDR X6, [X15],#8
0x0046431c  e5 85 40 f8  LDR X5, [X15],#8
0x00464320  e4 85 40 f8  LDR X4, [X15],#8
0x00464324  e3 85 40 f8  LDR X3, [X15],#8
0x00464328  e2 85 40 f8  LDR X2, [X15],#8
0x0046432c  e1 85 40 f8  LDR X1, [X15],#8
0x00464330  e0 85 40 f8  LDR X0, [X15],#8
0x00464334  e0 85 40 fc  LDR D0, [X15],#8
0x00464338  e1 85 40 fc  LDR D1, [X15],#8
0x0046433c  e2 85 40 fc  LDR D2, [X15],#8
0x00464340  e3 85 40 fc  LDR D3, [X15],#8
0x00464344  e4 85 40 fc  LDR D4, [X15],#8
0x00464348  e5 85 40 fc  LDR D5, [X15],#8
0x0046434c  e6 85 40 fc  LDR D6, [X15],#8
0x00464350  e7 85 40 fc  LDR D7, [X15],#8
0x00464354  f0 85 40 fc  LDR D16, [X15],#8
0x00464358  f1 85 40 fc  LDR D17, [X15],#8
0x0046435c  f2 85 40 fc  LDR D18, [X15],#8
0x00464360  f3 85 40 fc  LDR D19, [X15],#8
0x00464364  f4 85 40 fc  LDR D20, [X15],#8
0x00464368  f5 85 40 fc  LDR D21, [X15],#8
0x0046436c  f6 85 40 fc  LDR D22, [X15],#8
0x00464370  f7 85 40 fc  LDR D23, [X15],#8
0x00464374  f8 85 40 fc  LDR D24, [X15],#8
0x00464378  f9 85 40 fc  LDR D25, [X15],#8
0x0046437c  fa 85 40 fc  LDR D26, [X15],#8
0x00464380  fb 85 40 fc  LDR D27, [X15],#8
0x00464384  fc 85 40 fc  LDR D28, [X15],#8
0x00464388  fd 85 40 fc  LDR D29, [X15],#8
0x0046438c  fe 85 40 fc  LDR D30, [X15],#8
0x00464390  ff 85 40 fc  LDR D31, [X15],#8
0x00464394  ef 03 1d aa  MOV X15, X29
0x00464398  fd 79 c1 a8  LDP X29, X30, [X15],#16
0x0046439c  f8 85 40 f8  LDR X24, [X15],#8
0x004643a0  c0 03 5f d6  RET X30
0x004643a4  fe 8d 1f f8  STR X30, [X15,#-8]!
0x004643a8  e1 8d 1f f8  STR X1, [X15,#-8]!
0x004643ac  e1 03 00 aa  MOV X1, X0
0x004643b0  5e 03 41 f9  LDR X30, [X26,#512]
0x004643b4  c0 03 3f d6  BLR X30
0x004643b8  e1 85 40 f8  LDR X1, [X15],#8
0x004643bc  fe 85 40 f8  LDR X30, [X15],#8
0x004643c0  c0 03 5f d6  RET X30
0x004643c4  fe 8d 1f f8  STR X30, [X15,#-8]!
0x004643c8  e1 8d 1f f8  STR X1, [X15,#-8]!
0x004643cc  e1 03 01 aa  MOV X1, X1
0x004643d0  5e 03 41 f9  LDR X30, [X26,#512]
0x004643d4  c0 03 3f d6  BLR X30
0x004643d8  e1 85 40 f8  LDR X1, [X15],#8
0x004643dc  fe 85 40 f8  LDR X30, [X15],#8
0x004643e0  c0 03 5f d6  RET X30
0x004643e4  fe 8d 1f f8  STR X30, [X15,#-8]!
0x004643e8  e1 8d 1f f8  STR X1, [X15,#-8]!
0x004643ec  e1 03 02 aa  MOV X1, X2
0x004643f0  5e 03 41 f9  LDR X30, [X26,#512]
0x004643f4  c0 03 3f d6  BLR X30
0x004643f8  e1 85 40 f8  LDR X1, [X15],#8
0x004643fc  fe 85 40 f8  LDR X30, [X15],#8
0x00464400  c0 03 5f d6  RET X30
0x00464404  fe 8d 1f f8  STR X30, [X15,#-8]!
0x00464408  e1 8d 1f f8  STR X1, [X15,#-8]!
0x0046440c  e1 03 03 aa  MOV X1, X3
0x00464410  5e 03 41 f9  LDR X30, [X26,#512]
0x00464414  c0 03 3f d6  BLR X30
0x00464418  e1 85 40 f8  LDR X1, [X15],#8
0x0046441c  fe 85 40 f8  LDR X30, [X15],#8
0x00464420  c0 03 5f d6  RET X30
0x00464424  fe 8d 1f f8  STR X30, [X15,#-8]!
0x00464428  e1 8d 1f f8  STR X1, [X15,#-8]!
0x0046442c  e1 03 04 aa  MOV X1, X4
0x00464430  5e 03 41 f9  LDR X30, [X26,#512]
0x00464434  c0 03 3f d6  BLR X30
0x00464438  e1 85 40 f8  LDR X1, [X15],#8
0x0046443c  fe 85 40 f8  LDR X30, [X15],#8
0x00464440  c0 03 5f d6  RET X30
0x00464444  fe 8d 1f f8  STR X30, [X15,#-8]!
0x00464448  e1 8d 1f f8  STR X1, [X15,#-8]!
0x0046444c  e1 03 05 aa  MOV X1, X5
0x00464450  5e 03 41 f9  LDR X30, [X26,#512]
0x00464454  c0 03 3f d6  BLR X30
0x00464458  e1 85 40 f8  LDR X1, [X15],#8
0x0046445c  fe 85 40 f8  LDR X30, [X15],#8
0x00464460  c0 03 5f d6  RET X30
0x00464464  fe 8d 1f f8  STR X30, [X15,#-8]!
0x00464468  e1 8d 1f f8  STR X1, [X15,#-8]!
0x0046446c  e1 03 06 aa  MOV X1, X6
0x00464470  5e 03 41 f9  LDR X30, [X26,#512]
0x00464474  c0 03 3f d6  BLR X30
0x00464478  e1 85 40 f8  LDR X1, [X15],#8
0x0046447c  fe 85 40 f8  LDR X30, [X15],#8
0x00464480  c0 03 5f d6  RET X30
0x00464484  fe 8d 1f f8  STR X30, [X15,#-8]!
0x00464488  e1 8d 1f f8  STR X1, [X15,#-8]!
0x0046448c  e1 03 07 aa  MOV X1, X7
0x00464490  5e 03 41 f9  LDR X30, [X26,#512]
0x00464494  c0 03 3f d6  BLR X30
0x00464498  e1 85 40 f8  LDR X1, [X15],#8
0x0046449c  fe 85 40 f8  LDR X30, [X15],#8
0x004644a0  c0 03 5f d6  RET X30
0x004644a4  fe 8d 1f f8  STR X30, [X15,#-8]!
0x004644a8  e1 8d 1f f8  STR X1, [X15,#-8]!
0x004644ac  e1 03 08 aa  MOV X1, X8
0x004644b0  5e 03 41 f9  LDR X30, [X26,#512]
0x004644b4  c0 03 3f d6  BLR X30
0x004644b8  e1 85 40 f8  LDR X1, [X15],#8
0x004644bc  fe 85 40 f8  LDR X30, [X15],#8
0x004644c0  c0 03 5f d6  RET X30
0x004644c4  fe 8d 1f f8  STR X30, [X15,#-8]!
0x004644c8  e1 8d 1f f8  STR X1, [X15,#-8]!
0x004644cc  e1 03 09 aa  MOV X1, X9
0x004644d0  5e 03 41 f9  LDR X30, [X26,#512]
0x004644d4  c0 03 3f d6  BLR X30
0x004644d8  e1 85 40 f8  LDR X1, [X15],#8
0x004644dc  fe 85 40 f8  LDR X30, [X15],#8
0x004644e0  c0 03 5f d6  RET X30
0x004644e4  fe 8d 1f f8  STR X30, [X15,#-8]!
0x004644e8  e1 8d 1f f8  STR X1, [X15,#-8]!
0x004644ec  e1 03 0a aa  MOV X1, X10
0x004644f0  5e 03 41 f9  LDR X30, [X26,#512]
0x004644f4  c0 03 3f d6  BLR X30
0x004644f8  e1 85 40 f8  LDR X1, [X15],#8
0x004644fc  fe 85 40 f8  LDR X30, [X15],#8
0x00464500  c0 03 5f d6  RET X30
0x00464504  fe 8d 1f f8  STR X30, [X15,#-8]!
0x00464508  e1 8d 1f f8  STR X1, [X15,#-8]!
0x0046450c  e1 03 0b aa  MOV X1, X11
0x00464510  5e 03 41 f9  LDR X30, [X26,#512]
0x00464514  c0 03 3f d6  BLR X30
0x00464518  e1 85 40 f8  LDR X1, [X15],#8
0x0046451c  fe 85 40 f8  LDR X30, [X15],#8
0x00464520  c0 03 5f d6  RET X30
0x00464524  fe 8d 1f f8  STR X30, [X15,#-8]!
0x00464528  e1 8d 1f f8  STR X1, [X15,#-8]!
0x0046452c  e1 03 0c aa  MOV X1, X12
0x00464530  5e 03 41 f9  LDR X30, [X26,#512]
0x00464534  c0 03 3f d6  BLR X30
0x00464538  e1 85 40 f8  LDR X1, [X15],#8
0x0046453c  fe 85 40 f8  LDR X30, [X15],#8
0x00464540  c0 03 5f d6  RET X30
0x00464544  fe 8d 1f f8  STR X30, [X15,#-8]!
0x00464548  e1 8d 1f f8  STR X1, [X15,#-8]!
0x0046454c  e1 03 0d aa  MOV X1, X13
0x00464550  5e 03 41 f9  LDR X30, [X26,#512]
0x00464554  c0 03 3f d6  BLR X30
0x00464558  e1 85 40 f8  LDR X1, [X15],#8
0x0046455c  fe 85 40 f8  LDR X30, [X15],#8
0x00464560  c0 03 5f d6  RET X30
0x00464564  fe 8d 1f f8  STR X30, [X15,#-8]!
0x00464568  e1 8d 1f f8  STR X1, [X15,#-8]!
0x0046456c  e1 03 0e aa  MOV X1, X14
0x00464570  5e 03 41 f9  LDR X30, [X26,#512]
0x00464574  c0 03 3f d6  BLR X30
0x00464578  e1 85 40 f8  LDR X1, [X15],#8
0x0046457c  fe 85 40 f8  LDR X30, [X15],#8
0x00464580  c0 03 5f d6  RET X30
0x00464584  fe 8d 1f f8  STR X30, [X15,#-8]!
0x00464588  e1 8d 1f f8  STR X1, [X15,#-8]!
0x0046458c  e1 03 13 aa  MOV X1, X19
0x00464590  5e 03 41 f9  LDR X30, [X26,#512]
0x00464594  c0 03 3f d6  BLR X30
0x00464598  e1 85 40 f8  LDR X1, [X15],#8
0x0046459c  fe 85 40 f8  LDR X30, [X15],#8
0x004645a0  c0 03 5f d6  RET X30
0x004645a4  fe 8d 1f f8  STR X30, [X15,#-8]!
0x004645a8  e1 8d 1f f8  STR X1, [X15,#-8]!
0x004645ac  e1 03 14 aa  MOV X1, X20
0x004645b0  5e 03 41 f9  LDR X30, [X26,#512]
0x004645b4  c0 03 3f d6  BLR X30
0x004645b8  e1 85 40 f8  LDR X1, [X15],#8
0x004645bc  fe 85 40 f8  LDR X30, [X15],#8
0x004645c0  c0 03 5f d6  RET X30
0x004645c4  fe 8d 1f f8  STR X30, [X15,#-8]!
0x004645c8  e1 8d 1f f8  STR X1, [X15,#-8]!
0x004645cc  e1 03 17 aa  MOV X1, X23
0x004645d0  5e 03 41 f9  LDR X30, [X26,#512]
0x004645d4  c0 03 3f d6  BLR X30
0x004645d8  e1 85 40 f8  LDR X1, [X15],#8
0x004645dc  fe 85 40 f8  LDR X30, [X15],#8
0x004645e0  c0 03 5f d6  RET X30
0x004645e4  fe 8d 1f f8  STR X30, [X15,#-8]!
0x004645e8  e1 8d 1f f8  STR X1, [X15,#-8]!
0x004645ec  e1 03 18 aa  MOV X1, X24
0x004645f0  5e 03 41 f9  LDR X30, [X26,#512]
0x004645f4  c0 03 3f d6  BLR X30
0x004645f8  e1 85 40 f8  LDR X1, [X15],#8
0x004645fc  fe 85 40 f8  LDR X30, [X15],#8
0x00464600  c0 03 5f d6  RET X30
0x00464604  fe 8d 1f f8  STR X30, [X15,#-8]!
0x00464608  e1 8d 1f f8  STR X1, [X15,#-8]!
0x0046460c  e1 03 19 aa  MOV X1, X25
0x00464610  5e 03 41 f9  LDR X30, [X26,#512]
0x00464614  c0 03 3f d6  BLR X30
0x00464618  e1 85 40 f8  LDR X1, [X15],#8
0x0046461c  fe 85 40 f8  LDR X30, [X15],#8
0x00464620  c0 03 5f d6  RET X30
0x00464624  60 0f 18 36  TBZ W0, #3, .+0x1ec
0x00464628  e2 8d 1f f8  STR X2, [X15,#-8]!
0x0046462c  e3 8d 1f f8  STR X3, [X15,#-8]!
0x00464630  e4 8d 1f f8  STR X4, [X15,#-8]!
0x00464634  23 04 00 d1  SUB X3, X1, #0x1
0x00464638  62 7c 5f c8  LDXR X2, [X3]
0x0046463c  e2 1d 20 36  TBZ W2, #4, .+0x3bc
0x00464640  42 f8 7b 92  AND X2, X2, #0xffffffffffffffef
0x00464644  62 7c 04 c8  STXR W4, X2, [X3]
0x00464648  84 ff ff b5  CBNZ X4, .+0xfffffffffffffff0
0x0046464c  44 4f 40 f9  LDR X4, [X26,#152]
0x00464650  82 08 40 b9  LDR W2, [X4,#8]
0x00464654  83 0c 02 8b  ADD X3, X4, X2, LSL #3
0x00464658  61 08 00 f9  STR X1, [X3,#16]
0x0046465c  42 04 00 91  ADD X2, X2, #0x1
0x00464660  82 08 00 b9  STR W2, [X4,#8]
0x00464664  5f 00 10 f1  CMP X2, #0x400
0x00464668  e4 85 40 f8  LDR X4, [X15],#8
0x0046466c  e3 85 40 f8  LDR X3, [X15],#8
0x00464670  e2 85 40 f8  LDR X2, [X15],#8
0x00464674  40 00 00 54  B EQ, .+0x8
0x00464678  c0 03 5f d6  RET X30
0x0046467c  f8 8d 1f f8  STR X24, [X15,#-8]!
0x00464680  58 73 40 f9  LDR X24, [X26,#224]
0x00464684  fd 79 bf a9  STP X29, X30, [X15,#-16]!
0x00464688  fd 03 0f aa  MOV X29, X15
0x0046468c  ff 8d 1f fc  STR D31, [X15,#-8]!
0x00464690  fe 8d 1f fc  STR D30, [X15,#-8]!
0x00464694  fd 8d 1f fc  STR D29, [X15,#-8]!
0x00464698  fc 8d 1f fc  STR D28, [X15,#-8]!
0x0046469c  fb 8d 1f fc  STR D27, [X15,#-8]!
0x004646a0  fa 8d 1f fc  STR D26, [X15,#-8]!
0x004646a4  f9 8d 1f fc  STR D25, [X15,#-8]!
0x004646a8  f8 8d 1f fc  STR D24, [X15,#-8]!
0x004646ac  f7 8d 1f fc  STR D23, [X15,#-8]!
0x004646b0  f6 8d 1f fc  STR D22, [X15,#-8]!
0x004646b4  f5 8d 1f fc  STR D21, [X15,#-8]!
0x004646b8  f4 8d 1f fc  STR D20, [X15,#-8]!
0x004646bc  f3 8d 1f fc  STR D19, [X15,#-8]!
0x004646c0  f2 8d 1f fc  STR D18, [X15,#-8]!
0x004646c4  f1 8d 1f fc  STR D17, [X15,#-8]!
0x004646c8  f0 8d 1f fc  STR D16, [X15,#-8]!
0x004646cc  e7 8d 1f fc  STR D7, [X15,#-8]!
0x004646d0  e6 8d 1f fc  STR D6, [X15,#-8]!
0x004646d4  e5 8d 1f fc  STR D5, [X15,#-8]!
0x004646d8  e4 8d 1f fc  STR D4, [X15,#-8]!
0x004646dc  e3 8d 1f fc  STR D3, [X15,#-8]!
0x004646e0  e2 8d 1f fc  STR D2, [X15,#-8]!
0x004646e4  e1 8d 1f fc  STR D1, [X15,#-8]!
0x004646e8  e0 8d 1f fc  STR D0, [X15,#-8]!
0x004646ec  e0 8d 1f f8  STR X0, [X15,#-8]!
0x004646f0  e1 8d 1f f8  STR X1, [X15,#-8]!
0x004646f4  e2 8d 1f f8  STR X2, [X15,#-8]!
0x004646f8  e3 8d 1f f8  STR X3, [X15,#-8]!
0x004646fc  e4 8d 1f f8  STR X4, [X15,#-8]!
0x00464700  e5 8d 1f f8  STR X5, [X15,#-8]!
0x00464704  e6 8d 1f f8  STR X6, [X15,#-8]!
0x00464708  e7 8d 1f f8  STR X7, [X15,#-8]!
0x0046470c  e8 8d 1f f8  STR X8, [X15,#-8]!
0x00464710  e9 8d 1f f8  STR X9, [X15,#-8]!
0x00464714  ea 8d 1f f8  STR X10, [X15,#-8]!
0x00464718  eb 8d 1f f8  STR X11, [X15,#-8]!
0x0046471c  ec 8d 1f f8  STR X12, [X15,#-8]!
0x00464720  ed 8d 1f f8  STR X13, [X15,#-8]!
0x00464724  ee 8d 1f f8  STR X14, [X15,#-8]!
0x00464728  f4 65 bf a9  STP X20, X25, [X15,#-16]!
0x0046472c  e0 03 1a aa  MOV X0, X26
0x00464730  f4 03 00 91  MOV X20, SP
0x00464734  f9 03 0f aa  MOV X25, X15
0x00464738  ef ed 7c 92  AND X15, X15, #0xfffffffffffffff0
0x0046473c  ff 01 00 91  MOV SP, X15
0x00464740  50 53 42 f9  LDR X16, [X26,#1184]
0x00464744  50 5b 00 f9  STR X16, [X26,#176]
0x00464748  00 02 3f d6  BLR X16
0x0046474c  10 01 80 d2  MOV X16, #0x8
0x00464750  50 5b 00 f9  STR X16, [X26,#176]
0x00464754  ef 03 19 aa  MOV X15, X25
0x00464758  9f 02 00 91  MOV SP, X20
0x0046475c  af 23 05 d1  SUB X15, X29, #0x148
0x00464760  f4 65 c1 a8  LDP X20, X25, [X15],#16
0x00464764  ee 85 40 f8  LDR X14, [X15],#8
0x00464768  ed 85 40 f8  LDR X13, [X15],#8
0x0046476c  ec 85 40 f8  LDR X12, [X15],#8
0x00464770  eb 85 40 f8  LDR X11, [X15],#8
0x00464774  ea 85 40 f8  LDR X10, [X15],#8
0x00464778  e9 85 40 f8  LDR X9, [X15],#8
0x0046477c  e8 85 40 f8  LDR X8, [X15],#8
0x00464780  e7 85 40 f8  LDR X7, [X15],#8
0x00464784  e6 85 40 f8  LDR X6, [X15],#8
0x00464788  e5 85 40 f8  LDR X5, [X15],#8
0x0046478c  e4 85 40 f8  LDR X4, [X15],#8
0x00464790  e3 85 40 f8  LDR X3, [X15],#8
0x00464794  e2 85 40 f8  LDR X2, [X15],#8
0x00464798  e1 85 40 f8  LDR X1, [X15],#8
0x0046479c  e0 85 40 f8  LDR X0, [X15],#8
0x004647a0  e0 85 40 fc  LDR D0, [X15],#8
0x004647a4  e1 85 40 fc  LDR D1, [X15],#8
0x004647a8  e2 85 40 fc  LDR D2, [X15],#8
0x004647ac  e3 85 40 fc  LDR D3, [X15],#8
0x004647b0  e4 85 40 fc  LDR D4, [X15],#8
0x004647b4  e5 85 40 fc  LDR D5, [X15],#8
0x004647b8  e6 85 40 fc  LDR D6, [X15],#8
0x004647bc  e7 85 40 fc  LDR D7, [X15],#8
0x004647c0  f0 85 40 fc  LDR D16, [X15],#8
0x004647c4  f1 85 40 fc  LDR D17, [X15],#8
0x004647c8  f2 85 40 fc  LDR D18, [X15],#8
0x004647cc  f3 85 40 fc  LDR D19, [X15],#8
0x004647d0  f4 85 40 fc  LDR D20, [X15],#8
0x004647d4  f5 85 40 fc  LDR D21, [X15],#8
0x004647d8  f6 85 40 fc  LDR D22, [X15],#8
0x004647dc  f7 85 40 fc  LDR D23, [X15],#8
0x004647e0  f8 85 40 fc  LDR D24, [X15],#8
0x004647e4  f9 85 40 fc  LDR D25, [X15],#8
0x004647e8  fa 85 40 fc  LDR D26, [X15],#8
0x004647ec  fb 85 40 fc  LDR D27, [X15],#8
0x004647f0  fc 85 40 fc  LDR D28, [X15],#8
0x004647f4  fd 85 40 fc  LDR D29, [X15],#8
0x004647f8  fe 85 40 fc  LDR D30, [X15],#8
0x004647fc  ff 85 40 fc  LDR D31, [X15],#8
0x00464800  ef 03 1d aa  MOV X15, X29
0x00464804  fd 79 c1 a8  LDP X29, X30, [X15],#16
0x00464808  f8 85 40 f8  LDR X24, [X15],#8
0x0046480c  c0 03 5f d6  RET X30
0x00464810  e2 8d 1f f8  STR X2, [X15,#-8]!
0x00464814  e3 8d 1f f8  STR X3, [X15,#-8]!
0x00464818  e4 8d 1f f8  STR X4, [X15,#-8]!
0x0046481c  03 04 00 d1  SUB X3, X0, #0x1
0x00464820  62 7c 5f c8  LDXR X2, [X3]
0x00464824  a2 0e 08 36  TBZ W2, #1, .+0x1d4
0x00464828  42 f8 7e 92  AND X2, X2, #0xfffffffffffffffd
0x0046482c  62 7c 04 c8  STXR W4, X2, [X3]
0x00464830  84 ff ff b5  CBNZ X4, .+0xfffffffffffffff0
0x00464834  44 53 40 f9  LDR X4, [X26,#160]
0x00464838  82 08 40 b9  LDR W2, [X4,#8]
0x0046483c  83 0c 02 8b  ADD X3, X4, X2, LSL #3
0x00464840  60 08 00 f9  STR X0, [X3,#16]
0x00464844  42 04 00 91  ADD X2, X2, #0x1
0x00464848  82 08 00 b9  STR W2, [X4,#8]
0x0046484c  5f 00 01 f1  CMP X2, #0x40
0x00464850  e4 85 40 f8  LDR X4, [X15],#8
0x00464854  e3 85 40 f8  LDR X3, [X15],#8
0x00464858  e2 85 40 f8  LDR X2, [X15],#8
0x0046485c  40 00 00 54  B EQ, .+0x8
0x00464860  c0 03 5f d6  RET X30
0x00464864  f8 8d 1f f8  STR X24, [X15,#-8]!
0x00464868  58 73 40 f9  LDR X24, [X26,#224]
0x0046486c  fd 79 bf a9  STP X29, X30, [X15,#-16]!
0x00464870  fd 03 0f aa  MOV X29, X15
0x00464874  ff 8d 1f fc  STR D31, [X15,#-8]!
0x00464878  fe 8d 1f fc  STR D30, [X15,#-8]!
0x0046487c  fd 8d 1f fc  STR D29, [X15,#-8]!
0x00464880  fc 8d 1f fc  STR D28, [X15,#-8]!
0x00464884  fb 8d 1f fc  STR D27, [X15,#-8]!
0x00464888  fa 8d 1f fc  STR D26, [X15,#-8]!
0x0046488c  f9 8d 1f fc  STR D25, [X15,#-8]!
0x00464890  f8 8d 1f fc  STR D24, [X15,#-8]!
0x00464894  f7 8d 1f fc  STR D23, [X15,#-8]!
0x00464898  f6 8d 1f fc  STR D22, [X15,#-8]!
0x0046489c  f5 8d 1f fc  STR D21, [X15,#-8]!
0x004648a0  f4 8d 1f fc  STR D20, [X15,#-8]!
0x004648a4  f3 8d 1f fc  STR D19, [X15,#-8]!
0x004648a8  f2 8d 1f fc  STR D18, [X15,#-8]!
0x004648ac  f1 8d 1f fc  STR D17, [X15,#-8]!
0x004648b0  f0 8d 1f fc  STR D16, [X15,#-8]!
0x004648b4  e7 8d 1f fc  STR D7, [X15,#-8]!
0x004648b8  e6 8d 1f fc  STR D6, [X15,#-8]!
0x004648bc  e5 8d 1f fc  STR D5, [X15,#-8]!
0x004648c0  e4 8d 1f fc  STR D4, [X15,#-8]!
0x004648c4  e3 8d 1f fc  STR D3, [X15,#-8]!
0x004648c8  e2 8d 1f fc  STR D2, [X15,#-8]!
0x004648cc  e1 8d 1f fc  STR D1, [X15,#-8]!
0x004648d0  e0 8d 1f fc  STR D0, [X15,#-8]!
0x004648d4  e0 8d 1f f8  STR X0, [X15,#-8]!
0x004648d8  e1 8d 1f f8  STR X1, [X15,#-8]!
0x004648dc  e2 8d 1f f8  STR X2, [X15,#-8]!
0x004648e0  e3 8d 1f f8  STR X3, [X15,#-8]!
0x004648e4  e4 8d 1f f8  STR X4, [X15,#-8]!
0x004648e8  e5 8d 1f f8  STR X5, [X15,#-8]!
0x004648ec  e6 8d 1f f8  STR X6, [X15,#-8]!
0x004648f0  e7 8d 1f f8  STR X7, [X15,#-8]!
0x004648f4  e8 8d 1f f8  STR X8, [X15,#-8]!
0x004648f8  e9 8d 1f f8  STR X9, [X15,#-8]!
0x004648fc  ea 8d 1f f8  STR X10, [X15,#-8]!
0x00464900  eb 8d 1f f8  STR X11, [X15,#-8]!
0x00464904  ec 8d 1f f8  STR X12, [X15,#-8]!
0x00464908  ed 8d 1f f8  STR X13, [X15,#-8]!
0x0046490c  ee 8d 1f f8  STR X14, [X15,#-8]!
0x00464910  f4 65 bf a9  STP X20, X25, [X15,#-16]!
0x00464914  e0 03 1a aa  MOV X0, X26
0x00464918  f4 03 00 91  MOV X20, SP
0x0046491c  f9 03 0f aa  MOV X25, X15
0x00464920  ef ed 7c 92  AND X15, X15, #0xfffffffffffffff0
0x00464924  ff 01 00 91  MOV SP, X15
0x00464928  50 57 42 f9  LDR X16, [X26,#1192]
0x0046492c  50 5b 00 f9  STR X16, [X26,#176]
0x00464930  00 02 3f d6  BLR X16
0x00464934  10 01 80 d2  MOV X16, #0x8
0x00464938  50 5b 00 f9  STR X16, [X26,#176]
0x0046493c  ef 03 19 aa  MOV X15, X25
0x00464940  9f 02 00 91  MOV SP, X20
0x00464944  af 23 05 d1  SUB X15, X29, #0x148
0x00464948  f4 65 c1 a8  LDP X20, X25, [X15],#16
0x0046494c  ee 85 40 f8  LDR X14, [X15],#8
0x00464950  ed 85 40 f8  LDR X13, [X15],#8
0x00464954  ec 85 40 f8  LDR X12, [X15],#8
0x00464958  eb 85 40 f8  LDR X11, [X15],#8
0x0046495c  ea 85 40 f8  LDR X10, [X15],#8
0x00464960  e9 85 40 f8  LDR X9, [X15],#8
0x00464964  e8 85 40 f8  LDR X8, [X15],#8
0x00464968  e7 85 40 f8  LDR X7, [X15],#8
0x0046496c  e6 85 40 f8  LDR X6, [X15],#8
0x00464970  e5 85 40 f8  LDR X5, [X15],#8
0x00464974  e4 85 40 f8  LDR X4, [X15],#8
0x00464978  e3 85 40 f8  LDR X3, [X15],#8
0x0046497c  e2 85 40 f8  LDR X2, [X15],#8
0x00464980  e1 85 40 f8  LDR X1, [X15],#8
0x00464984  e0 85 40 f8  LDR X0, [X15],#8
0x00464988  e0 85 40 fc  LDR D0, [X15],#8
0x0046498c  e1 85 40 fc  LDR D1, [X15],#8
0x00464990  e2 85 40 fc  LDR D2, [X15],#8
0x00464994  e3 85 40 fc  LDR D3, [X15],#8
0x00464998  e4 85 40 fc  LDR D4, [X15],#8
0x0046499c  e5 85 40 fc  LDR D5, [X15],#8
0x004649a0  e6 85 40 fc  LDR D6, [X15],#8
0x004649a4  e7 85 40 fc  LDR D7, [X15],#8
0x004649a8  f0 85 40 fc  LDR D16, [X15],#8
0x004649ac  f1 85 40 fc  LDR D17, [X15],#8
0x004649b0  f2 85 40 fc  LDR D18, [X15],#8
0x004649b4  f3 85 40 fc  LDR D19, [X15],#8
0x004649b8  f4 85 40 fc  LDR D20, [X15],#8
0x004649bc  f5 85 40 fc  LDR D21, [X15],#8
0x004649c0  f6 85 40 fc  LDR D22, [X15],#8
0x004649c4  f7 85 40 fc  LDR D23, [X15],#8
0x004649c8  f8 85 40 fc  LDR D24, [X15],#8
0x004649cc  f9 85 40 fc  LDR D25, [X15],#8
0x004649d0  fa 85 40 fc  LDR D26, [X15],#8
0x004649d4  fb 85 40 fc  LDR D27, [X15],#8
0x004649d8  fc 85 40 fc  LDR D28, [X15],#8
0x004649dc  fd 85 40 fc  LDR D29, [X15],#8
0x004649e0  fe 85 40 fc  LDR D30, [X15],#8
0x004649e4  ff 85 40 fc  LDR D31, [X15],#8
0x004649e8  ef 03 1d aa  MOV X15, X29
0x004649ec  fd 79 c1 a8  LDP X29, X30, [X15],#16
0x004649f0  f8 85 40 f8  LDR X24, [X15],#8
0x004649f4  c0 03 5f d6  RET X30
0x004649f8  5f 3f 03 d5  CLREX 
0x004649fc  e4 85 40 f8  LDR X4, [X15],#8
0x00464a00  e3 85 40 f8  LDR X3, [X15],#8
0x00464a04  e2 85 40 f8  LDR X2, [X15],#8
0x00464a08  c0 03 5f d6  RET X30
0x00464a0c  30 3e 9e d2  MOV X16, #0xf1f1
0x00464a10  30 3e be f2  MOVK X16, #0xf1f1, LSL #16
0x00464a14  f0 8d 1f f8  STR X16, [X15,#-8]!
0x00464a18  5e 1b 43 f9  LDR X30, [X26,#1584]
0x00464a1c  fd 79 bf a9  STP X29, X30, [X15,#-16]!
0x00464a20  fd 03 0f aa  MOV X29, X15
0x00464a24  ff 8d 1f f8  STR XZR, [X15,#-8]!
0x00464a28  fe 8d 1f f8  STR X30, [X15,#-8]!
0x00464a2c  fd 8d 1f f8  STR X29, [X15,#-8]!
0x00464a30  fc 8d 1f f8  STR X28, [X15,#-8]!
0x00464a34  fb 8d 1f f8  STR X27, [X15,#-8]!
0x00464a38  fa 8d 1f f8  STR X26, [X15,#-8]!
0x00464a3c  f9 8d 1f f8  STR X25, [X15,#-8]!
0x00464a40  b9 0b 40 f9  LDR X25, [X29,#16]
0x00464a44  f9 8d 1f f8  STR X25, [X15,#-8]!
0x00464a48  f7 8d 1f f8  STR X23, [X15,#-8]!
0x00464a4c  f6 8d 1f f8  STR X22, [X15,#-8]!
0x00464a50  f5 8d 1f f8  STR X21, [X15,#-8]!
0x00464a54  f4 8d 1f f8  STR X20, [X15,#-8]!
0x00464a58  f3 8d 1f f8  STR X19, [X15,#-8]!
0x00464a5c  f2 8d 1f f8  STR X18, [X15,#-8]!
0x00464a60  f1 8d 1f f8  STR X17, [X15,#-8]!
0x00464a64  f0 8d 1f f8  STR X16, [X15,#-8]!
0x00464a68  f0 03 0f aa  MOV X16, X15
0x00464a6c  f0 8d 1f f8  STR X16, [X15,#-8]!
0x00464a70  ee 8d 1f f8  STR X14, [X15,#-8]!
0x00464a74  ed 8d 1f f8  STR X13, [X15,#-8]!
0x00464a78  ec 8d 1f f8  STR X12, [X15,#-8]!
0x00464a7c  eb 8d 1f f8  STR X11, [X15,#-8]!
0x00464a80  ea 8d 1f f8  STR X10, [X15,#-8]!
0x00464a84  e9 8d 1f f8  STR X9, [X15,#-8]!
0x00464a88  e8 8d 1f f8  STR X8, [X15,#-8]!
0x00464a8c  e7 8d 1f f8  STR X7, [X15,#-8]!
0x00464a90  e6 8d 1f f8  STR X6, [X15,#-8]!
0x00464a94  e5 8d 1f f8  STR X5, [X15,#-8]!
0x00464a98  e4 8d 1f f8  STR X4, [X15,#-8]!
0x00464a9c  e3 8d 1f f8  STR X3, [X15,#-8]!
0x00464aa0  e2 8d 1f f8  STR X2, [X15,#-8]!
0x00464aa4  e1 8d 1f f8  STR X1, [X15,#-8]!
0x00464aa8  e0 8d 1f f8  STR X0, [X15,#-8]!
0x00464aac  ff 0d 9f 3c  STR Q31, [X15,#-16]!
0x00464ab0  fe 0d 9f 3c  STR Q30, [X15,#-16]!
0x00464ab4  fd 0d 9f 3c  STR Q29, [X15,#-16]!
0x00464ab8  fc 0d 9f 3c  STR Q28, [X15,#-16]!
0x00464abc  fb 0d 9f 3c  STR Q27, [X15,#-16]!
0x00464ac0  fa 0d 9f 3c  STR Q26, [X15,#-16]!
0x00464ac4  f9 0d 9f 3c  STR Q25, [X15,#-16]!
0x00464ac8  f8 0d 9f 3c  STR Q24, [X15,#-16]!
0x00464acc  f7 0d 9f 3c  STR Q23, [X15,#-16]!
0x00464ad0  f6 0d 9f 3c  STR Q22, [X15,#-16]!
0x00464ad4  f5 0d 9f 3c  STR Q21, [X15,#-16]!
0x00464ad8  f4 0d 9f 3c  STR Q20, [X15,#-16]!
0x00464adc  f3 0d 9f 3c  STR Q19, [X15,#-16]!
0x00464ae0  f2 0d 9f 3c  STR Q18, [X15,#-16]!
0x00464ae4  f1 0d 9f 3c  STR Q17, [X15,#-16]!
0x00464ae8  f0 0d 9f 3c  STR Q16, [X15,#-16]!
0x00464aec  ef 0d 9f 3c  STR Q15, [X15,#-16]!
0x00464af0  ee 0d 9f 3c  STR Q14, [X15,#-16]!
0x00464af4  ed 0d 9f 3c  STR Q13, [X15,#-16]!
0x00464af8  ec 0d 9f 3c  STR Q12, [X15,#-16]!
0x00464afc  eb 0d 9f 3c  STR Q11, [X15,#-16]!
0x00464b00  ea 0d 9f 3c  STR Q10, [X15,#-16]!
0x00464b04  e9 0d 9f 3c  STR Q9, [X15,#-16]!
0x00464b08  e8 0d 9f 3c  STR Q8, [X15,#-16]!
0x00464b0c  e7 0d 9f 3c  STR Q7, [X15,#-16]!
0x00464b10  e6 0d 9f 3c  STR Q6, [X15,#-16]!
0x00464b14  e5 0d 9f 3c  STR Q5, [X15,#-16]!
0x00464b18  e4 0d 9f 3c  STR Q4, [X15,#-16]!
0x00464b1c  e3 0d 9f 3c  STR Q3, [X15,#-16]!
0x00464b20  e2 0d 9f 3c  STR Q2, [X15,#-16]!
0x00464b24  e1 0d 9f 3c  STR Q1, [X15,#-16]!
0x00464b28  e0 0d 9f 3c  STR Q0, [X15,#-16]!
0x00464b2c  e0 03 0f aa  MOV X0, X15
0x00464b30  01 00 80 d2  MOV X1, #0x0
0x00464b34  ef ed 7c 92  AND X15, X15, #0xfffffffffffffff0
0x00464b38  f4 03 00 91  MOV X20, SP
0x00464b3c  f9 03 0f aa  MOV X25, X15
0x00464b40  ef ed 7c 92  AND X15, X15, #0xfffffffffffffff0
0x00464b44  ff 01 00 91  MOV SP, X15
0x00464b48  50 4b 42 f9  LDR X16, [X26,#1168]
0x00464b4c  50 5b 00 f9  STR X16, [X26,#176]
0x00464b50  00 02 3f d6  BLR X16
0x00464b54  10 01 80 d2  MOV X16, #0x8
0x00464b58  50 5b 00 f9  STR X16, [X26,#176]
0x00464b5c  ef 03 19 aa  MOV X15, X25
0x00464b60  9f 02 00 91  MOV SP, X20
0x00464b64  b8 03 40 f9  LDR X24, [X29]
0x00464b68  ef 03 1d aa  MOV X15, X29
0x00464b6c  fd 79 c1 a8  LDP X29, X30, [X15],#16
0x00464b70  af 03 00 cb  SUB X15, X29, X0
0x00464b74  fd 79 bf a9  STP X29, X30, [X15,#-16]!
0x00464b78  fd 03 0f aa  MOV X29, X15
0x00464b7c  ef ed 7c 92  AND X15, X15, #0xfffffffffffffff0
0x00464b80  e0 03 1d aa  MOV X0, X29
0x00464b84  f4 03 00 91  MOV X20, SP
0x00464b88  f9 03 0f aa  MOV X25, X15
0x00464b8c  ef ed 7c 92  AND X15, X15, #0xfffffffffffffff0
0x00464b90  ff 01 00 91  MOV SP, X15
0x00464b94  50 4f 42 f9  LDR X16, [X26,#1176]
0x00464b98  50 5b 00 f9  STR X16, [X26,#176]
0x00464b9c  00 02 3f d6  BLR X16
0x00464ba0  10 01 80 d2  MOV X16, #0x8
0x00464ba4  50 5b 00 f9  STR X16, [X26,#176]
0x00464ba8  ef 03 19 aa  MOV X15, X25
0x00464bac  9f 02 00 91  MOV SP, X20
0x00464bb0  b8 03 40 f9  LDR X24, [X29]
0x00464bb4  ef 03 1d aa  MOV X15, X29
0x00464bb8  fd 79 c1 a8  LDP X29, X30, [X15],#16
0x00464bbc  fd 79 bf a9  STP X29, X30, [X15,#-16]!
0x00464bc0  fd 03 0f aa  MOV X29, X15
0x00464bc4  ff 8d 1f f8  STR XZR, [X15,#-8]!
0x00464bc8  45 23 42 f9  LDR X5, [X26,#1088]
0x00464bcc  04 00 80 d2  MOV X4, #0x0
0x00464bd0  5e 0b 41 f9  LDR X30, [X26,#528]
0x00464bd4  c0 03 3f d6  BLR X30
0x00464bd8  e2 85 40 f8  LDR X2, [X15],#8
0x00464bdc  42 7c 41 93  SBFX X2, X2, #1, #31
0x00464be0  ef 03 1d aa  MOV X15, X29
0x00464be4  fd 79 c1 a8  LDP X29, X30, [X15],#16
0x00464be8  ef 01 02 8b  ADD X15, X15, X2
0x00464bec  fd 79 bf a9  STP X29, X30, [X15,#-16]!
0x00464bf0  fd 03 0f aa  MOV X29, X15
0x00464bf4  45 27 42 f9  LDR X5, [X26,#1096]
0x00464bf8  04 00 80 d2  MOV X4, #0x0
0x00464bfc  5e 0b 41 f9  LDR X30, [X26,#528]
0x00464c00  c0 03 3f d6  BLR X30
0x00464c04  ef 03 1d aa  MOV X15, X29
0x00464c08  fd 79 c1 a8  LDP X29, X30, [X15],#16
0x00464c0c  00 00 20 d4  BRK #0x0
0x00464c10  5e 1b 43 f9  LDR X30, [X26,#1584]
0x00464c14  42 67 40 f9  LDR X2, [X26,#200]
0x00464c18  40 0f 43 f9  LDR X0, [X26,#1560]
0x00464c1c  42 0f 03 f9  STR X2, [X26,#1560]
0x00464c20  41 13 43 f9  LDR X1, [X26,#1568]
0x00464c24  42 13 03 f9  STR X2, [X26,#1568]
0x00464c28  c0 03 5f d6  RET X30
0x00464c2c  f3 03 00 aa  MOV X19, X0
0x00464c30  ef 03 01 aa  MOV X15, X1
0x00464c34  fd 03 02 aa  MOV X29, X2
0x00464c38  fa 03 03 aa  MOV X26, X3
0x00464c3c  50 3b 40 f9  LDR X16, [X26,#112]
0x00464c40  1f 06 40 d1  SUB SP, X16, #0x1, LSL #12
0x00464c44  40 33 43 f9  LDR X0, [X26,#1632]
0x00464c48  21 00 80 d2  MOV X1, #0x1
0x00464c4c  1f 00 01 eb  CMP X0, X1
0x00464c50  81 02 00 54  B NE, .+0x50
0x00464c54  11 c9 80 d2  MOV X17, #0x648
0x00464c58  51 03 11 8b  ADD X17, X26, X17
0x00464c5c  20 7e 5f c8  LDXR X0, [X17]
0x00464c60  1f 14 00 f1  CMP X0, #0x5
0x00464c64  a1 00 00 54  B NE, .+0x14
0x00464c68  00 00 80 d2  MOV X0, #0x0
0x00464c6c  20 7e 10 c8  STXR W16, X0, [X17]
0x00464c70  b0 00 00 b4  CBZ X16, .+0x14
0x00464c74  fa ff ff 17  B .+0xffffffffffffffe8
0x00464c78  51 fb 40 f9  LDR X17, [X26,#496]
0x00464c7c  31 72 40 f8  LDUR X17, [X17,#7]
0x00464c80  20 02 3f d6  BLR X17
0x00464c84  00 01 80 d2  MOV X0, #0x8
0x00464c88  40 5b 00 f9  STR X0, [X26,#176]
0x00464c8c  20 00 80 d2  MOV X0, #0x1
0x00464c90  40 23 03 f9  STR X0, [X26,#1600]
0x00464c94  5f 4b 00 f9  STR XZR, [X26,#144]
0x00464c98  00 00 80 d2  MOV X0, #0x0
0x00464c9c  40 33 03 f9  STR X0, [X26,#1632]
0x00464ca0  5c 23 40 f9  LDR X28, [X26,#64]
0x00464ca4  9c 7f 60 d3  LSL X28, X28, #32
0x00464ca8  56 67 40 f9  LDR X22, [X26,#200]
0x00464cac  50 27 40 f9  LDR X16, [X26,#72]
0x00464cb0  9c 83 50 aa  ORR X28, X28, X16, LSR #32
0x00464cb4  02 01 80 d2  MOV X2, #0x8
0x00464cb8  42 5b 00 f9  STR X2, [X26,#176]
0x00464cbc  5f 4b 00 f9  STR XZR, [X26,#144]
0x00464cc0  b8 03 40 f9  LDR X24, [X29]
0x00464cc4  5b 17 43 f9  LDR X27, [X26,#1576]
0x00464cc8  7b 07 00 d1  SUB X27, X27, #0x1
0x00464ccc  55 2f 40 f9  LDR X21, [X26,#88]
0x00464cd0  60 02 5f d6  RET X19
0x00464cd4  e0 03 00 91  MOV X0, SP
0x00464cd8  c0 03 5f d6  RET X30
